Archive member included because of file (symbol)

c:/microchip/mplab c30/bin/bin/../../lib\libpic30-coff.a(crt1.o)
                              (_resetALT)
c:/microchip/mplab c30/bin/bin/../../lib\libpic30-coff.a(crt0.o)
                              (_resetPRI)
c:/microchip/mplab c30/bin/bin/../../lib\libm-coff.a(modsi3.o)
                              uWatch-Main.o (__modsi3)
c:/microchip/mplab c30/bin/bin/../../lib\libm-coff.a(dgtge.o)
                              uWatch-Main.o (__gtdf2)
c:/microchip/mplab c30/bin/bin/../../lib\libm-coff.a(deqltle.o)
                              uWatch-Main.o (__eqdf2)
c:/microchip/mplab c30/bin/bin/../../lib\libm-coff.a(fixunsdfsi.o)
                              uWatch-Main.o (__fixunsdfsi)
c:/microchip/mplab c30/bin/bin/../../lib\libm-coff.a(dne.o)
                              uWatch-Main.o (__nedf2)
c:/microchip/mplab c30/bin/bin/../../lib\libm-coff.a(fixunsdfdi.o)
                              uWatch-Main.o (__fixunsdfdi)
c:/microchip/mplab c30/bin/bin/../../lib\libm-coff.a(floatsidf.o)
                              uWatch-Main.o (__floatsidf)
c:/microchip/mplab c30/bin/bin/../../lib\libm-coff.a(pow.o)
                              uWatch-Main.o (pow)
c:/microchip/mplab c30/bin/bin/../../lib\libm-coff.a(fixdfsi.o)
                              uWatch-Main.o (__fixdfsi)
c:/microchip/mplab c30/bin/bin/../../lib\libm-coff.a(adddf3.o)
                              uWatch-Main.o (__adddf3)
c:/microchip/mplab c30/bin/bin/../../lib\libm-coff.a(muldf3.o)
                              uWatch-Main.o (__muldf3)
c:/microchip/mplab c30/bin/bin/../../lib\libm-coff.a(subdf3.o)
                              uWatch-Main.o (__subdf3)
c:/microchip/mplab c30/bin/bin/../../lib\libm-coff.a(divdf3.o)
                              uWatch-Main.o (__divdf3)
c:/microchip/mplab c30/bin/bin/../../lib\libm-coff.a(sqrt.o)
                              uWatch-Main.o (sqrt)
c:/microchip/mplab c30/bin/bin/../../lib\libm-coff.a(truncdfsf.o)
                              uWatch-Main.o (__truncdfsf2)
c:/microchip/mplab c30/bin/bin/../../lib\libm-coff.a(mulsf3.o)
                              uWatch-Main.o (__mulsf3)
c:/microchip/mplab c30/bin/bin/../../lib\libm-coff.a(extendsfdf.o)
                              uWatch-Main.o (__extendsfdf2)
c:/microchip/mplab c30/bin/bin/../../lib\libm-coff.a(addsf3.o)
                              uWatch-Main.o (__subsf3)
c:/microchip/mplab c30/bin/bin/../../lib\libm-coff.a(fgtge.o)
                              uWatch-Main.o (__gesf2)
c:/microchip/mplab c30/bin/bin/../../lib\libm-coff.a(floor.o)
                              uWatch-astro.o (floor)
c:/microchip/mplab c30/bin/bin/../../lib\libm-coff.a(sin.o)
                              uWatch-astro.o (sin)
c:/microchip/mplab c30/bin/bin/../../lib\libm-coff.a(cos.o)
                              uWatch-astro.o (cos)
c:/microchip/mplab c30/bin/bin/../../lib\libm-coff.a(atan.o)
                              uWatch-astro.o (atan)
c:/microchip/mplab c30/bin/bin/../../lib\libm-coff.a(acos.o)
                              uWatch-astro.o (acos)
c:/microchip/mplab c30/bin/bin/../../lib\libm-coff.a(divsi3.o)
                              uWatch-op.o (__divsi3)
c:/microchip/mplab c30/bin/bin/../../lib\libm-coff.a(exp.o)
                              uWatch-op.o (exp)
c:/microchip/mplab c30/bin/bin/../../lib\libm-coff.a(cosh.o)
                              uWatch-op.o (cosh)
c:/microchip/mplab c30/bin/bin/../../lib\libm-coff.a(sinh.o)
                              uWatch-op.o (sinh)
c:/microchip/mplab c30/bin/bin/../../lib\libm-coff.a(atan2.o)
                              uWatch-op.o (atan2)
c:/microchip/mplab c30/bin/bin/../../lib\libm-coff.a(log.o)
                              uWatch-op.o (log)
c:/microchip/mplab c30/bin/bin/../../lib\libm-coff.a(tan.o)
                              uWatch-op.o (tan)
c:/microchip/mplab c30/bin/bin/../../lib\libm-coff.a(asin.o)
                              uWatch-op.o (asin)
c:/microchip/mplab c30/bin/bin/../../lib\libm-coff.a(tanh.o)
                              uWatch-op.o (tanh)
c:/microchip/mplab c30/bin/bin/../../lib\libm-coff.a(umodsi3.o)
                              c:/microchip/mplab c30/bin/bin/../../lib\libm-coff.a(modsi3.o) (__umodsi3)
c:/microchip/mplab c30/bin/bin/../../lib\libm-coff.a(dcompare.o)
                              c:/microchip/mplab c30/bin/bin/../../lib\libm-coff.a(dgtge.o) (_dcompare)
c:/microchip/mplab c30/bin/bin/../../lib\libm-coff.a(dunpack.o)
                              c:/microchip/mplab c30/bin/bin/../../lib\libm-coff.a(fixunsdfsi.o) (_dunpack)
c:/microchip/mplab c30/bin/bin/../../lib\libm-coff.a(dunpack2.o)
                              c:/microchip/mplab c30/bin/bin/../../lib\libm-coff.a(adddf3.o) (_dunpack2)
c:/microchip/mplab c30/bin/bin/../../lib\libm-coff.a(floatdidf.o)
                              c:/microchip/mplab c30/bin/bin/../../lib\libm-coff.a(floatsidf.o) (__floatdidf)
c:/microchip/mplab c30/bin/bin/../../lib\libm-coff.a(dtype.o)
                              c:/microchip/mplab c30/bin/bin/../../lib\libm-coff.a(pow.o) (_dtype)
c:/microchip/mplab c30/bin/bin/../../lib\libm-coff.a(dchop.o)
                              c:/microchip/mplab c30/bin/bin/../../lib\libm-coff.a(pow.o) (_dchop)
c:/microchip/mplab c30/bin/bin/../../lib\libm-coff.a(frexp.o)
                              c:/microchip/mplab c30/bin/bin/../../lib\libm-coff.a(pow.o) (frexp)
c:/microchip/mplab c30/bin/bin/../../lib\libm-coff.a(ldexp.o)
                              c:/microchip/mplab c30/bin/bin/../../lib\libm-coff.a(pow.o) (ldexp)
c:/microchip/mplab c30/bin/bin/../../lib\libm-coff.a(errno.o)
                              c:/microchip/mplab c30/bin/bin/../../lib\libm-coff.a(pow.o) (errno)
c:/microchip/mplab c30/bin/bin/../../lib\libm-coff.a(dpack.o)
                              c:/microchip/mplab c30/bin/bin/../../lib\libm-coff.a(adddf3.o) (_dpack)
c:/microchip/mplab c30/bin/bin/../../lib\libm-coff.a(fpack.o)
                              c:/microchip/mplab c30/bin/bin/../../lib\libm-coff.a(truncdfsf.o) (_fpack)
c:/microchip/mplab c30/bin/bin/../../lib\libm-coff.a(funpack2.o)
                              c:/microchip/mplab c30/bin/bin/../../lib\libm-coff.a(mulsf3.o) (_funpack2)
c:/microchip/mplab c30/bin/bin/../../lib\libm-coff.a(futil.o)
                              c:/microchip/mplab c30/bin/bin/../../lib\libm-coff.a(mulsf3.o) (_fPropagateNaN)
c:/microchip/mplab c30/bin/bin/../../lib\libm-coff.a(funpack.o)
                              c:/microchip/mplab c30/bin/bin/../../lib\libm-coff.a(extendsfdf.o) (_funpack)
c:/microchip/mplab c30/bin/bin/../../lib\libm-coff.a(fcompare.o)
                              c:/microchip/mplab c30/bin/bin/../../lib\libm-coff.a(fgtge.o) (_fcompare)
c:/microchip/mplab c30/bin/bin/../../lib\libm-coff.a(sincos.o)
                              c:/microchip/mplab c30/bin/bin/../../lib\libm-coff.a(sin.o) (_sincos)
c:/microchip/mplab c30/bin/bin/../../lib\libm-coff.a(asinacos.o)
                              c:/microchip/mplab c30/bin/bin/../../lib\libm-coff.a(acos.o) (_asinacos)
c:/microchip/mplab c30/bin/bin/../../lib\libm-coff.a(udivsi3.o)
                              c:/microchip/mplab c30/bin/bin/../../lib\libm-coff.a(divsi3.o) (__udivsi3)
c:/microchip/mplab c30/bin/bin/../../lib\libm-coff.a(sinhcosh.o)
                              c:/microchip/mplab c30/bin/bin/../../lib\libm-coff.a(cosh.o) (__sinhcosh)
c:/microchip/mplab c30/bin/bin/../../lib\libm-coff.a(fmod.o)
                              c:/microchip/mplab c30/bin/bin/../../lib\libm-coff.a(tan.o) (fmod)
c:/microchip/mplab c30/bin/bin/../../lib\libm-coff.a(dpropagateNaN.o)
                              c:/microchip/mplab c30/bin/bin/../../lib\libm-coff.a(dunpack2.o) (_dPropagateNaN)
c:/microchip/mplab c30/bin/bin/../../lib\libm-coff.a(dmodrem.o)
                              c:/microchip/mplab c30/bin/bin/../../lib\libm-coff.a(fmod.o) (_dmodrem)
c:/microchip/mplab c30/bin/bin/../../lib\libc-coff.a(strlen.o)
                              uWatch-Main.o (strlen)
c:/microchip/mplab c30/bin/bin/../../lib\libc-coff.a(strncpy.o)
                              uWatch-Main.o (strncpy)
c:/microchip/mplab c30/bin/bin/../../lib\libc-coff.a(strchr.o)
                              uWatch-Main.o (strchr)
c:/microchip/mplab c30/bin/bin/../../lib\libc-coff.a(strcpy.o)
                              uWatch-Main.o (strcpy)
c:/microchip/mplab c30/bin/bin/../../lib\libc-coff.a(sprintf.do)
                              uWatch-Main.o (_dsprintf)
c:/microchip/mplab c30/bin/bin/../../lib\libc-coff.a(xstoul.o)
                              uWatch-Main.o (_Stoul)
c:/microchip/mplab c30/bin/bin/../../lib\libc-coff.a(xstold.o)
                              uWatch-Main.o (_Stold)
c:/microchip/mplab c30/bin/bin/../../lib\libc-coff.a(strrchr.o)
                              uWatch-Main.o (strrchr)
c:/microchip/mplab c30/bin/bin/../../lib\libc-coff.a(sprintf.io)
                              uWatch-Main.o (_isprintf)
c:/microchip/mplab c30/bin/bin/../../lib\libc-coff.a(strcat.o)
                              uWatch-Main.o (strcat)
c:/microchip/mplab c30/bin/bin/../../lib\libc-coff.a(memset.o)
                              uWatch-Main.o (memset)
c:/microchip/mplab c30/bin/bin/../../lib\libc-coff.a(rand.o)
                              uWatch-Main.o (rand)
c:/microchip/mplab c30/bin/bin/../../lib\libc-coff.a(memcpy.o)
                              c:/microchip/mplab c30/bin/bin/../../lib\libc-coff.a(sprintf.do) (memcpy)
c:/microchip/mplab c30/bin/bin/../../lib\libc-coff.a(xprintf.do)
                              c:/microchip/mplab c30/bin/bin/../../lib\libc-coff.a(sprintf.do) (__dPrintf)
c:/microchip/mplab c30/bin/bin/../../lib\libc-coff.a(isspace.os)
                              c:/microchip/mplab c30/bin/bin/../../lib\libc-coff.a(xstoul.o) (isspace)
c:/microchip/mplab c30/bin/bin/../../lib\libc-coff.a(tolower.os)
                              c:/microchip/mplab c30/bin/bin/../../lib\libc-coff.a(xstoul.o) (tolower)
c:/microchip/mplab c30/bin/bin/../../lib\libc-coff.a(memchr.o)
                              c:/microchip/mplab c30/bin/bin/../../lib\libc-coff.a(xstoul.o) (memchr)
c:/microchip/mplab c30/bin/bin/../../lib\libc-coff.a(xstopfx.o)
                              c:/microchip/mplab c30/bin/bin/../../lib\libc-coff.a(xstold.o) (_Stopfx)
c:/microchip/mplab c30/bin/bin/../../lib\libc-coff.a(xstoflt.o)
                              c:/microchip/mplab c30/bin/bin/../../lib\libc-coff.a(xstold.o) (_Stoflt)
c:/microchip/mplab c30/bin/bin/../../lib\libc-coff.a(xstoxflt.o)
                              c:/microchip/mplab c30/bin/bin/../../lib\libc-coff.a(xstold.o) (_Stoxflt)
c:/microchip/mplab c30/bin/bin/../../lib\libc-coff.a(xldscale.o)
                              c:/microchip/mplab c30/bin/bin/../../lib\libc-coff.a(xstold.o) (_LDscale)
c:/microchip/mplab c30/bin/bin/../../lib\libc-coff.a(xldtento.o)
                              c:/microchip/mplab c30/bin/bin/../../lib\libc-coff.a(xstold.o) (_LDtento)
c:/microchip/mplab c30/bin/bin/../../lib\libc-coff.a(xprintf.io)
                              c:/microchip/mplab c30/bin/bin/../../lib\libc-coff.a(sprintf.io) (__iPrintf)
c:/microchip/mplab c30/bin/bin/../../lib\libc-coff.a(xvacopy.o)
                              c:/microchip/mplab c30/bin/bin/../../lib\libc-coff.a(xprintf.do) (_Vacopy)
c:/microchip/mplab c30/bin/bin/../../lib\libc-coff.a(xputfld.do)
                              c:/microchip/mplab c30/bin/bin/../../lib\libc-coff.a(xprintf.do) (__dPutfld)
c:/microchip/mplab c30/bin/bin/../../lib\libc-coff.a(xputtxt.o)
                              c:/microchip/mplab c30/bin/bin/../../lib\libc-coff.a(xprintf.do) (_Puttxt)
c:/microchip/mplab c30/bin/bin/../../lib\libc-coff.a(isalnum.os)
                              c:/microchip/mplab c30/bin/bin/../../lib\libc-coff.a(xstopfx.o) (isalnum)
c:/microchip/mplab c30/bin/bin/../../lib\libc-coff.a(xdnorm.o)
                              c:/microchip/mplab c30/bin/bin/../../lib\libc-coff.a(xldscale.o) (_Dnorm)
c:/microchip/mplab c30/bin/bin/../../lib\libc-coff.a(xldunsca.o)
                              c:/microchip/mplab c30/bin/bin/../../lib\libc-coff.a(xldtento.o) (_LDunscale)
c:/microchip/mplab c30/bin/bin/../../lib\libc-coff.a(xferaise.o)
                              c:/microchip/mplab c30/bin/bin/../../lib\libc-coff.a(xldtento.o) (_Feraise)
c:/microchip/mplab c30/bin/bin/../../lib\libc-coff.a(xputfld.io)
                              c:/microchip/mplab c30/bin/bin/../../lib\libc-coff.a(xprintf.io) (__iPutfld)
c:/microchip/mplab c30/bin/bin/../../lib\libc-coff.a(xldtob.o)
                              c:/microchip/mplab c30/bin/bin/../../lib\libc-coff.a(xputfld.do) (_Ldtob)
c:/microchip/mplab c30/bin/bin/../../lib\libc-coff.a(xlitob.o)
                              c:/microchip/mplab c30/bin/bin/../../lib\libc-coff.a(xputfld.do) (_Litob)
c:/microchip/mplab c30/bin/bin/../../lib\libc-coff.a(ldiv.o)
                              c:/microchip/mplab c30/bin/bin/../../lib\libc-coff.a(xldtob.o) (ldiv)
c:/microchip/mplab c30/bin/bin/../../lib\libc-coff.a(xgenld.o)
                              c:/microchip/mplab c30/bin/bin/../../lib\libc-coff.a(xldtob.o) (_Genld)
c:/microchip/mplab c30/bin/bin/../../lib\libc-coff.a(div.o)
                              c:/microchip/mplab c30/bin/bin/../../lib\libc-coff.a(xgenld.o) (div)
c:/microchip/mplab c30/bin/bin/../../lib\libm-coff.a(mulsi3.o)
                              c:/microchip/mplab c30/bin/bin/../../lib\libc-coff.a(xstoul.o) (__mulsi3)
c:/microchip/mplab c30/bin/bin/../../lib\libm-coff.a(divmoddi3.o)
                              c:/microchip/mplab c30/bin/bin/../../lib\libc-coff.a(xlitob.o) (__udivdi3)
c:/microchip/mplab c30/bin/bin/../../lib\libm-coff.a(muldi3.o)
                              c:/microchip/mplab c30/bin/bin/../../lib\libc-coff.a(xlitob.o) (__muldi3)
c:/microchip/mplab c30/bin/bin/../../lib\libm-coff.a(umuldi3.o)
                              c:/microchip/mplab c30/bin/bin/../../lib\libm-coff.a(muldi3.o) (__umuldi3)


Program Memory Usage

section                    address   length (PC units)   length (bytes) (dec)
-------                    -------   -----------------   --------------------
.reset                           0                 0x4             0x6  (6)
.ivt                           0x4                0xfc           0x17a  (378)
.aivt                        0x104                0xfc           0x17a  (378)
.text                        0x200              0x38ee          0x5565  (21861)
.const                      0x3aee               0x84c           0xc72  (3186)
.text                       0x433a              0x4bd2          0x71bb  (29115)
.dinit                      0x8f0c               0x22e           0x345  (837)
.isr                        0x913a                 0x2             0x3  (3)
__CONFIG2                   0xabfc                 0x2             0x3  (3)
__CONFIG1                   0xabfe                 0x2             0x3  (3)

                     Total program memory used (bytes):         0xd9da  (55770) 84%


Data Memory Usage

section                    address      alignment gaps    total length  (dec)
-------                    -------      --------------    -------------------
.nbss                        0x800                   0           0x268  (616)
.ndata                       0xa68                   0            0xcc  (204)
.nbss                        0xb34                   0             0x2  (2)
.bss                         0xb36                   0            0x88  (136)
.data                        0xbbe                   0            0xda  (218)
.dconst                      0xc98                   0            0x32  (50)
.data                        0xcca                   0            0xac  (172)
.dconst                      0xd76                   0             0x8  (8)
.data                        0xd7e                   0             0x2  (2)
.dconst                      0xd80                   0             0x2  (2)
.data                        0xd82                   0             0x2  (2)

                        Total data memory used (bytes):          0x584  (1412) 17%


Dynamic Memory Usage

region                     address                      maximum length  (dec)
------                     -------                      ---------------------
heap                             0                                   0  (0)
stack                        0xd84                              0x1a7c  (6780)

                        Maximum dynamic memory (bytes):         0x1a7c  (6780)


External Symbols in Data Memory (by address):

                    0x0800                  _DegreesMode
                    0x0802                  _Regs
                    0x0822                  _iRegs
                    0x0842                  _CurrentMenu
                    0x0844                  _RPNmode
                    0x0846                  _ExponentIncluded
                    0x0848                  _DecimalIncluded
                    0x084a                  _ComplexIncluded
                    0x084c                  _ValueEntered
                    0x084e                  _EnableXregOverwrite
                    0x0850                  _WatchMode
                    0x0852                  _DisplayXreg
                    0x0873                  _DisplayYreg
                    0x0894                  _OperatorsXY
                    0x089e                  _OperatorsYZ
                    0x08a8                  _OperatorsZT
                    0x08b2                  _Yregs
                    0x08d2                  _Zregs
                    0x08f2                  _Tregs
                    0x0912                  _iYregs
                    0x0932                  _iZregs
                    0x0952                  _iTregs
                    0x0972                  _Sreg
                    0x09c2                  _iSreg
                    0x0a12                  _LCDhistory1
                    0x0a23                  _LCDhistory2
                    0x0a34                  _NextMode
                    0x0a36                  _TwelveHour
                    0x0a38                  _CalcDisplayBase
                    0x0a3a                  _ProgPlay
                    0x0a3c                  _ProgRec
                    0x0a3e                  _MemPointer
                    0x0a40                  _Time
                    0x0a44                  _Date
                    0x0a48                  _MoonPhase
                    0x0a4a                  _DST
                    0x0a4c                  _MJD
                    0x0a50                  _Year
                    0x0a52                  _Month
                    0x0a54                  _Day
                    0x0a56                  _DayOfWeek
                    0x0a58                  _Longitude
                    0x0a60                  _Latitude
                    0x0a68                  _MainMenus
                    0x0ad8                  _dstRegion
                    0x0d6c                  __Tls_setup__Randseed
                    0x0d6e                  __Randseed
                    0x0d72                  __Tls_setup__Randinit
                    0x0d74                  __Randinit

External Symbols in Data Memory (by name):

                    0x0a38                  _CalcDisplayBase
                    0x084a                  _ComplexIncluded
                    0x0842                  _CurrentMenu
                    0x0a4a                  _DST
                    0x0a44                  _Date
                    0x0a54                  _Day
                    0x0a56                  _DayOfWeek
                    0x0848                  _DecimalIncluded
                    0x0800                  _DegreesMode
                    0x0852                  _DisplayXreg
                    0x0873                  _DisplayYreg
                    0x084e                  _EnableXregOverwrite
                    0x0846                  _ExponentIncluded
                    0x0a12                  _LCDhistory1
                    0x0a23                  _LCDhistory2
                    0x0a60                  _Latitude
                    0x0a58                  _Longitude
                    0x0a4c                  _MJD
                    0x0a68                  _MainMenus
                    0x0a3e                  _MemPointer
                    0x0a52                  _Month
                    0x0a48                  _MoonPhase
                    0x0a34                  _NextMode
                    0x0894                  _OperatorsXY
                    0x089e                  _OperatorsYZ
                    0x08a8                  _OperatorsZT
                    0x0a3a                  _ProgPlay
                    0x0a3c                  _ProgRec
                    0x0844                  _RPNmode
                    0x0802                  _Regs
                    0x0972                  _Sreg
                    0x0a40                  _Time
                    0x08f2                  _Tregs
                    0x0a36                  _TwelveHour
                    0x084c                  _ValueEntered
                    0x0850                  _WatchMode
                    0x0a50                  _Year
                    0x08b2                  _Yregs
                    0x08d2                  _Zregs
                    0x0d74                  __Randinit
                    0x0d6e                  __Randseed
                    0x0d72                  __Tls_setup__Randinit
                    0x0d6c                  __Tls_setup__Randseed
                    0x0ad8                  _dstRegion
                    0x0822                  _iRegs
                    0x09c2                  _iSreg
                    0x0952                  _iTregs
                    0x0912                  _iYregs
                    0x0932                  _iZregs

External Symbols in Program Memory (by address):

                  0x000200                  __resetPRI
                  0x00021e                  __psv_init
                  0x00022e                  __data_init
                  0x00029e                  _strlen
                  0x0002ac                  _strncpy
                  0x0002d2                  _strchr
                  0x0002e4                  _strcpy
                  0x0002f4                  sprintf.do:_prout
                  0x000300                  __dsprintf
                  0x000300                  __isprintf
                  0x000322                  __Stoul
                  0x00044a                  __Stold
                  0x0005ba                  _strrchr
                  0x0005d0                  _strcat
                  0x0005ee                  _memset
                  0x0005fc                  _rand
                  0x0006a6                  _memcpy
                  0x0006b4                  ___dPrintf
                  0x0006b4                  ___iPrintf
                  0x000826                  _isspace
                  0x000836                  _tolower
                  0x000844                  _memchr
                  0x000858                  __Stopfx
                  0x000962                  __Stoflt
                  0x000b26                  __Stoxflt
                  0x000d10                  __LDscale
                  0x000e36                  __LDtento
                  0x000f7c                  __Vacopy
                  0x000f86                  ___dPutfld
                  0x000f86                  ___iPutfld
                  0x00126c                  __Puttxt
                  0x001400                  _isalnum
                  0x00141c                  __Dnorm
                  0x0014b4                  __LDunscale
                  0x00150c                  __Feraise
                  0x001522                  __Ldtob
                  0x001974                  __Litob
                  0x001ae4                  _ldiv
                  0x001b1e                  __Genld
                  0x001d86                  _div
                  0x001d9c                  ___modsi3
                  0x001dba                  ___gedf2
                  0x001dba                  ___gtdf2
                  0x001dc4                  ___ledf2
                  0x001dc4                  ___ltdf2
                  0x001dc4                  ___eqdf2
                  0x001dce                  ___fixunsdfsi
                  0x001e1a                  ___nedf2
                  0x001e24                  ___fixunsdfdi
                  0x001e86                  ___floatsidf
                  0x001e8c                  _pow
                  0x001e8c                  _powl
                  0x0020c8                  ___fixdfsi
                  0x002120                  ___adddf3
                  0x00221a                  ___muldf3
                  0x002304                  ___subdf3
                  0x002308                  ___divdf3
                  0x0023bc                  _sqrt
                  0x0023bc                  _sqrtl
                  0x00245c                  ___truncdfsf2
                  0x0024b2                  ___mulsf3
                  0x00251a                  ___extendsfdf2
                  0x002558                  ___subsf3
                  0x00255a                  ___addsf3
                  0x002614                  ___gesf2
                  0x002614                  ___gtsf2
                  0x002618                  _floor
                  0x002618                  _floorl
                  0x00262a                  _sinl
                  0x00262a                  _sin
                  0x00262e                  _cosl
                  0x00262e                  _cos
                  0x002632                  _atan
                  0x002632                  _atanl
                  0x00279e                  _acosl
                  0x00279e                  _acos
                  0x0027a2                  ___divsi3
                  0x0027c0                  _exp
                  0x0027c0                  _expl
                  0x0028f0                  _coshl
                  0x0028f0                  _cosh
                  0x002908                  _sinhl
                  0x002908                  _sinh
                  0x0029d0                  _atan2l
                  0x0029d0                  _atan2
                  0x002a32                  _logl
                  0x002a32                  _log
                  0x002b62                  _tan
                  0x002b62                  _tanl
                  0x002cae                  _asin
                  0x002cae                  _asinl
                  0x002cb2                  _tanh
                  0x002cb2                  _tanhl
                  0x002db2                  ___umodsi3
                  0x002db8                  __dcompare
                  0x002e0a                  __dunpack
                  0x002e58                  __dunpack2
                  0x002e7a                  __dreturnNaN
                  0x002e80                  __dunpack2exit
                  0x002e8a                  ___floatdidf
                  0x002ef8                  __dtype
                  0x002f1c                  __dchop
                  0x002fa4                  _frexp
                  0x002fa4                  _frexpl
                  0x002fde                  _ldexp
                  0x002fde                  _ldexpl
                  0x003044                  __dpack
                  0x00309c                  __fpack
                  0x0030e8                  __funpack2
                  0x0030f8                  __fPropagateNaN
                  0x00310a                  __fbopExit
                  0x003112                  __fbopReturnNaN
                  0x003118                  __funpack
                  0x003142                  __fcompare
                  0x003178                  __sincos
                  0x0032d2                  __asinacos
                  0x003450                  ___udivsi3
                  0x003470                  ___sinhcosh
                  0x0034d8                  _fmodl
                  0x0034d8                  _fmod
                  0x0034e0                  __dPropagateNaN
                  0x0034fc                  __dmodrem
                  0x0035cc                  ___mulsi3
                  0x0035fe                  ___udivmoddi3
                  0x0036cc                  ___udivdi3
                  0x0036da                  ___umoddi3
                  0x0036e2                  ___divdi3
                  0x00371c                  ___moddi3
                  0x0037ee                  ___muldi3
                  0x00384a                  ___umuldi3
                  0x00388e                  _OpenTimer1
                  0x003896                  _RtccInitClock
                  0x0038b8                  _RtccReadTime
                  0x0038ec                  _RtccReadDate
                  0x003928                  _RtccWrOn
                  0x003956                  _RtccWriteDate
                  0x003a26                  _RtccWriteTime
                  0x00433a                  _opPrec
                  0x004372                  _DelayMs
                  0x004386                  _Clock1MHz
                  0x00438e                  _Clock4MHz
                  0x004396                  _Clock250KHz
                  0x00439e                  _Clock125KHz
                  0x0043a6                  _Clock32KHz
                  0x0043ae                  _LCD_STROBE
                  0x0043b4                  _SetLCDdata
                  0x0043c2                  _lcd_write
                  0x0043d2                  _lcd_clear
                  0x0043da                  _lcd_puts
                  0x004410                  _lcd_goto
                  0x00441a                  _lcd_init
                  0x00443c                  _UpdateLCD
                  0x004472                  _UpdateLCDline1
                  0x004488                  _UpdateLCDline2
                  0x00449e                  _ClearCurrentRegs
                  0x0044ea                  _ClearAllRegs
                  0x0045ce                  _i2c_high_sda
                  0x0045d2                  _i2c_low_sda
                  0x0045d6                  _i2c_high_scl
                  0x0045da                  _i2c_low_scl
                  0x0045de                  _i2c_in_byte
                  0x004602                  _i2c_out_byte
                  0x004622                  _i2c_nack
                  0x00462a                  _i2c_ack
                  0x004634                  _i2c_start
                  0x004640                  _i2c_stop
                  0x00464a                  _I2CmemoryWRITE
                  0x004678                  _I2CmemoryREAD
                  0x0046aa                  _KeystrokeReplay
                  0x0046c8                  _KeystrokeRecord
                  0x0046ee                  _KeyScan
                  0x00485c                  _BCDtoDEC
                  0x004866                  _DECtoBCD
                  0x00487c                  _itochar
                  0x0048d8                  _DriveMenu
                  0x004928                  _ReturnNumber
                  0x00496a                  _DriveMenu2
                  0x004a12                  _GetNumBCD
                  0x004a34                  _Push
                  0x004a76                  _PushOp
                  0x004a82                  _PopOp
                  0x004a8e                  _DropStack
                  0x004abc                  _Clt
                  0x004ace                  _PopStack
                  0x004aec                  _PushStackUp
                  0x004af2                  _Drop
                  0x004afc                  _Clx
                  0x004b0e                  _SwapXY
                  0x004b54                  _Operate
                  0x004b9a                  _EnterComplex
                  0x004bbc                  _ChangeSign
                  0x004bd8                  _EnterNumber
                  0x004d86                  _FormatValue
                  0x00507a                  _UpdateDisplayRegX
                  0x005082                  _UpdateDisplayRegs
                  0x005158                  _xtio
                  0x00518c                  _ConvertDisplay
                  0x0052e6                  _CompleteXreg
                  0x0052fc                  _UpdateMANTDisplay
                  0x005358                  _UpdateXregDisplay
                  0x005374                  _UpdateYregDisplay
                  0x005396                  _ResetFlags
                  0x0053a6                  _StoreRecall
                  0x00541a                  _SignKey
                  0x0054ca                  _KeyRecord
                  0x005520                  _KeyReplay
                  0x00556c                  _HexEntry
                  0x0055d2                  _Conversions
                  0x00569c                  _BaseMode
                  0x0056d6                  _RPNcalculator
                  0x0057f4                  _reduce
                  0x005818                  _ALGcalculator
                  0x005b28                  _SetTimeBCD
                  0x005b54                  _SetDateBCD
                  0x005b8c                  _SetDateBCDandUpdate
                  0x005baa                  _OneLineNumberEntry
                  0x005be2                  _SetupMode
                  0x005ff2                  _AppsMode
                  0x006012                  _GamesMode
                  0x00658c                  _ToolsMode
                  0x00689a                  _RTCCunlock
                  0x0068ac                  _LCDon
                  0x0068b6                  _LCDoff
                  0x0068c4                  _IdleI2C1
                  0x0069a2                  _inDST
                  0x006a0a                  _AdjustDateTime
                  0x006aca                  _TimeDateDisplay
                  0x006c5e                  _BacklightON
                  0x006c6c                  _BacklightOFF
                  0x006c74                  __T1Interrupt
                  0x006ce8                  _ProgramInit
                  0x006ddc                  _main
                  0x006e4e                  _hms
                  0x006ebc                  _hr
                  0x006f2a                  _caldati
                  0x006fdc                  _mjd
                  0x00704e                  _moonPhase
                  0x007678                  uWatch-op.o:_opSin
                  0x00774a                  uWatch-op.o:_opTan
                  0x00788e                  uWatch-op.o:_opASin
                  0x007996                  uWatch-op.o:_opATan
                  0x007e5a                  _Operation
                  0x008eaa                  _CalcRiseAndSet
                  0x00913a                  __DefaultInterrupt

External Symbols in Program Memory (by name):

                  0x005818                  _ALGcalculator
                  0x006a0a                  _AdjustDateTime
                  0x005ff2                  _AppsMode
                  0x00485c                  _BCDtoDEC
                  0x006c6c                  _BacklightOFF
                  0x006c5e                  _BacklightON
                  0x00569c                  _BaseMode
                  0x008eaa                  _CalcRiseAndSet
                  0x004bbc                  _ChangeSign
                  0x0044ea                  _ClearAllRegs
                  0x00449e                  _ClearCurrentRegs
                  0x00439e                  _Clock125KHz
                  0x004386                  _Clock1MHz
                  0x004396                  _Clock250KHz
                  0x0043a6                  _Clock32KHz
                  0x00438e                  _Clock4MHz
                  0x004abc                  _Clt
                  0x004afc                  _Clx
                  0x0052e6                  _CompleteXreg
                  0x0055d2                  _Conversions
                  0x00518c                  _ConvertDisplay
                  0x004866                  _DECtoBCD
                  0x004372                  _DelayMs
                  0x0048d8                  _DriveMenu
                  0x00496a                  _DriveMenu2
                  0x004af2                  _Drop
                  0x004a8e                  _DropStack
                  0x004b9a                  _EnterComplex
                  0x004bd8                  _EnterNumber
                  0x004d86                  _FormatValue
                  0x006012                  _GamesMode
                  0x004a12                  _GetNumBCD
                  0x00556c                  _HexEntry
                  0x004678                  _I2CmemoryREAD
                  0x00464a                  _I2CmemoryWRITE
                  0x0068c4                  _IdleI2C1
                  0x0054ca                  _KeyRecord
                  0x005520                  _KeyReplay
                  0x0046ee                  _KeyScan
                  0x0046c8                  _KeystrokeRecord
                  0x0046aa                  _KeystrokeReplay
                  0x0043ae                  _LCD_STROBE
                  0x0068b6                  _LCDoff
                  0x0068ac                  _LCDon
                  0x005baa                  _OneLineNumberEntry
                  0x00388e                  _OpenTimer1
                  0x004b54                  _Operate
                  0x007e5a                  _Operation
                  0x004a82                  _PopOp
                  0x004ace                  _PopStack
                  0x006ce8                  _ProgramInit
                  0x004a34                  _Push
                  0x004a76                  _PushOp
                  0x004aec                  _PushStackUp
                  0x0056d6                  _RPNcalculator
                  0x00689a                  _RTCCunlock
                  0x005396                  _ResetFlags
                  0x004928                  _ReturnNumber
                  0x003896                  _RtccInitClock
                  0x0038ec                  _RtccReadDate
                  0x0038b8                  _RtccReadTime
                  0x003928                  _RtccWrOn
                  0x003956                  _RtccWriteDate
                  0x003a26                  _RtccWriteTime
                  0x005b54                  _SetDateBCD
                  0x005b8c                  _SetDateBCDandUpdate
                  0x0043b4                  _SetLCDdata
                  0x005b28                  _SetTimeBCD
                  0x005be2                  _SetupMode
                  0x00541a                  _SignKey
                  0x0053a6                  _StoreRecall
                  0x004b0e                  _SwapXY
                  0x006aca                  _TimeDateDisplay
                  0x00658c                  _ToolsMode
                  0x00507a                  _UpdateDisplayRegX
                  0x005082                  _UpdateDisplayRegs
                  0x00443c                  _UpdateLCD
                  0x004472                  _UpdateLCDline1
                  0x004488                  _UpdateLCDline2
                  0x0052fc                  _UpdateMANTDisplay
                  0x005358                  _UpdateXregDisplay
                  0x005374                  _UpdateYregDisplay
                  0x00913a                  __DefaultInterrupt
                  0x00141c                  __Dnorm
                  0x00150c                  __Feraise
                  0x001b1e                  __Genld
                  0x000d10                  __LDscale
                  0x000e36                  __LDtento
                  0x0014b4                  __LDunscale
                  0x001522                  __Ldtob
                  0x001974                  __Litob
                  0x00126c                  __Puttxt
                  0x000962                  __Stoflt
                  0x00044a                  __Stold
                  0x000858                  __Stopfx
                  0x000322                  __Stoul
                  0x000b26                  __Stoxflt
                  0x006c74                  __T1Interrupt
                  0x000f7c                  __Vacopy
                  0x002120                  ___adddf3
                  0x00255a                  ___addsf3
                  0x0006b4                  ___dPrintf
                  0x000f86                  ___dPutfld
                  0x002308                  ___divdf3
                  0x0036e2                  ___divdi3
                  0x0027a2                  ___divsi3
                  0x001dc4                  ___eqdf2
                  0x00251a                  ___extendsfdf2
                  0x0020c8                  ___fixdfsi
                  0x001e24                  ___fixunsdfdi
                  0x001dce                  ___fixunsdfsi
                  0x002e8a                  ___floatdidf
                  0x001e86                  ___floatsidf
                  0x001dba                  ___gedf2
                  0x002614                  ___gesf2
                  0x001dba                  ___gtdf2
                  0x002614                  ___gtsf2
                  0x0006b4                  ___iPrintf
                  0x000f86                  ___iPutfld
                  0x001dc4                  ___ledf2
                  0x001dc4                  ___ltdf2
                  0x00371c                  ___moddi3
                  0x001d9c                  ___modsi3
                  0x00221a                  ___muldf3
                  0x0037ee                  ___muldi3
                  0x0024b2                  ___mulsf3
                  0x0035cc                  ___mulsi3
                  0x001e1a                  ___nedf2
                  0x003470                  ___sinhcosh
                  0x002304                  ___subdf3
                  0x002558                  ___subsf3
                  0x00245c                  ___truncdfsf2
                  0x0036cc                  ___udivdi3
                  0x0035fe                  ___udivmoddi3
                  0x003450                  ___udivsi3
                  0x0036da                  ___umoddi3
                  0x002db2                  ___umodsi3
                  0x00384a                  ___umuldi3
                  0x0032d2                  __asinacos
                  0x0034e0                  __dPropagateNaN
                  0x00022e                  __data_init
                  0x002f1c                  __dchop
                  0x002db8                  __dcompare
                  0x0034fc                  __dmodrem
                  0x003044                  __dpack
                  0x002e7a                  __dreturnNaN
                  0x000300                  __dsprintf
                  0x002ef8                  __dtype
                  0x002e0a                  __dunpack
                  0x002e58                  __dunpack2
                  0x002e80                  __dunpack2exit
                  0x0030f8                  __fPropagateNaN
                  0x00310a                  __fbopExit
                  0x003112                  __fbopReturnNaN
                  0x003142                  __fcompare
                  0x00309c                  __fpack
                  0x003118                  __funpack
                  0x0030e8                  __funpack2
                  0x000300                  __isprintf
                  0x00021e                  __psv_init
                  0x000200                  __resetPRI
                  0x003178                  __sincos
                  0x00279e                  _acos
                  0x00279e                  _acosl
                  0x002cae                  _asin
                  0x002cae                  _asinl
                  0x002632                  _atan
                  0x0029d0                  _atan2
                  0x0029d0                  _atan2l
                  0x002632                  _atanl
                  0x006f2a                  _caldati
                  0x00262e                  _cos
                  0x0028f0                  _cosh
                  0x0028f0                  _coshl
                  0x00262e                  _cosl
                  0x001d86                  _div
                  0x0027c0                  _exp
                  0x0027c0                  _expl
                  0x002618                  _floor
                  0x002618                  _floorl
                  0x0034d8                  _fmod
                  0x0034d8                  _fmodl
                  0x002fa4                  _frexp
                  0x002fa4                  _frexpl
                  0x006e4e                  _hms
                  0x006ebc                  _hr
                  0x00462a                  _i2c_ack
                  0x0045d6                  _i2c_high_scl
                  0x0045ce                  _i2c_high_sda
                  0x0045de                  _i2c_in_byte
                  0x0045da                  _i2c_low_scl
                  0x0045d2                  _i2c_low_sda
                  0x004622                  _i2c_nack
                  0x004602                  _i2c_out_byte
                  0x004634                  _i2c_start
                  0x004640                  _i2c_stop
                  0x0069a2                  _inDST
                  0x001400                  _isalnum
                  0x000826                  _isspace
                  0x00487c                  _itochar
                  0x0043d2                  _lcd_clear
                  0x004410                  _lcd_goto
                  0x00441a                  _lcd_init
                  0x0043da                  _lcd_puts
                  0x0043c2                  _lcd_write
                  0x002fde                  _ldexp
                  0x002fde                  _ldexpl
                  0x001ae4                  _ldiv
                  0x002a32                  _log
                  0x002a32                  _logl
                  0x006ddc                  _main
                  0x000844                  _memchr
                  0x0006a6                  _memcpy
                  0x0005ee                  _memset
                  0x006fdc                  _mjd
                  0x00704e                  _moonPhase
                  0x00433a                  _opPrec
                  0x001e8c                  _pow
                  0x001e8c                  _powl
                  0x0005fc                  _rand
                  0x0057f4                  _reduce
                  0x00262a                  _sin
                  0x002908                  _sinh
                  0x002908                  _sinhl
                  0x00262a                  _sinl
                  0x0023bc                  _sqrt
                  0x0023bc                  _sqrtl
                  0x0005d0                  _strcat
                  0x0002d2                  _strchr
                  0x0002e4                  _strcpy
                  0x00029e                  _strlen
                  0x0002ac                  _strncpy
                  0x0005ba                  _strrchr
                  0x002b62                  _tan
                  0x002cb2                  _tanh
                  0x002cb2                  _tanhl
                  0x002b62                  _tanl
                  0x000836                  _tolower
                  0x005158                  _xtio
                  0x0002f4                  sprintf.do:_prout
                  0x00788e                  uWatch-op.o:_opASin
                  0x007996                  uWatch-op.o:_opATan
                  0x007678                  uWatch-op.o:_opSin
                  0x00774a                  uWatch-op.o:_opTan

Memory Configuration

Name             Origin             Length             Attributes
data             0x000800           0x002000           a !xr
reset            0x000000           0x000004  
ivt              0x000004           0x0000fc  
aivt             0x000104           0x0000fc  
program          0x000200           0x00a9fc           xr
config2          0x00abfc           0x000002  
config1          0x00abfe           0x000002  
*default*        0x000000           0xffffffff  

Linker script and memory map

LOAD uWatch-Main.o
LOAD RTCCInitClock.o
LOAD RtccReadTime.o
LOAD RtccReadDate.o
LOAD RtccWrOn.o
LOAD RtccWriteDate.o
LOAD RtccWriteTime.o
LOAD uWatch-astro.o
LOAD uWatch-op.o
LOAD c:/microchip/mplab c30/bin/bin/../../lib/PIC24F\libpPIC24Fxxx-coff.a
                    0xabfc                  __CONFIG2 = 0xabfc
                    0xabfe                  __CONFIG1 = 0xabfe
                    0x0004                  __IVT_BASE = 0x4
                    0x0104                  __AIVT_BASE = 0x104
                    0x0800                  __DATA_BASE = 0x800
                    0x0200                  __CODE_BASE = 0x200

.reset            0x000000          0x4
                  0x000000          0x2 SHORT 0x200 <code 337> (__reset)
                  0x000001          0x2 SHORT 0x4
                  0x000002          0x2 SHORT 0x0 ((<code 337> (__reset) >> 0x10) & 0x7f)
                  0x000003          0x2 SHORT 0x0

.text             0x000200       0x38ee
 *(.init)
 .init            0x000200         0x8a c:/microchip/mplab c30/bin/bin/../../lib\libpic30-coff.a(crt0.o)
                  0x000200                  _resetPRI
                  0x000200                  _reset
                  0x00021e                  _psv_init
                  0x00022e                  _data_init
 *(.user_init)
 *(.handle)
 .handle          0x00028a         0x14 jump_table
 *(.libc)
 .libc            0x00029e          0xe c:/microchip/mplab c30/bin/bin/../../lib\libc-coff.a(strlen.o)
                  0x00029e                  strlen
 .libc            0x0002ac         0x26 c:/microchip/mplab c30/bin/bin/../../lib\libc-coff.a(strncpy.o)
                  0x0002ac                  strncpy
 .libc            0x0002d2         0x12 c:/microchip/mplab c30/bin/bin/../../lib\libc-coff.a(strchr.o)
                  0x0002d2                  strchr
 .libc            0x0002e4         0x10 c:/microchip/mplab c30/bin/bin/../../lib\libc-coff.a(strcpy.o)
                  0x0002e4                  strcpy
 .libc            0x0002f4         0x2e c:/microchip/mplab c30/bin/bin/../../lib\libc-coff.a(sprintf.do)
                  0x0002f4                  sprintf.do:_prout
                  0x000300                  _isprintf
                  0x000300                  _dsprintf
 .libc            0x000322        0x128 c:/microchip/mplab c30/bin/bin/../../lib\libc-coff.a(xstoul.o)
                  0x000322                  _Stoul
 .libc            0x00044a        0x170 c:/microchip/mplab c30/bin/bin/../../lib\libc-coff.a(xstold.o)
                  0x00044a                  _Stold
 .libc            0x0005ba         0x16 c:/microchip/mplab c30/bin/bin/../../lib\libc-coff.a(strrchr.o)
                  0x0005ba                  strrchr
 .libc            0x0005d0         0x1e c:/microchip/mplab c30/bin/bin/../../lib\libc-coff.a(strcat.o)
                  0x0005d0                  strcat
 .libc            0x0005ee          0xe c:/microchip/mplab c30/bin/bin/../../lib\libc-coff.a(memset.o)
                  0x0005ee                  memset
 .libc            0x0005fc         0xaa c:/microchip/mplab c30/bin/bin/../../lib\libc-coff.a(rand.o)
                  0x0005fc                  rand
 .libc            0x0006a6          0xe c:/microchip/mplab c30/bin/bin/../../lib\libc-coff.a(memcpy.o)
                  0x0006a6                  memcpy
 .libc            0x0006b4        0x172 c:/microchip/mplab c30/bin/bin/../../lib\libc-coff.a(xprintf.do)
                  0x0006b4                  __dPrintf
                  0x0006b4                  __iPrintf
 .libc            0x000826         0x10 c:/microchip/mplab c30/bin/bin/../../lib\libc-coff.a(isspace.os)
                  0x000826                  isspace
 .libc            0x000836          0xe c:/microchip/mplab c30/bin/bin/../../lib\libc-coff.a(tolower.os)
                  0x000836                  tolower
 .libc            0x000844         0x14 c:/microchip/mplab c30/bin/bin/../../lib\libc-coff.a(memchr.o)
                  0x000844                  memchr
 .libc            0x000858        0x10a c:/microchip/mplab c30/bin/bin/../../lib\libc-coff.a(xstopfx.o)
                  0x000858                  _Stopfx
 .libc            0x000962        0x1c4 c:/microchip/mplab c30/bin/bin/../../lib\libc-coff.a(xstoflt.o)
                  0x000962                  _Stoflt
 .libc            0x000b26        0x1ea c:/microchip/mplab c30/bin/bin/../../lib\libc-coff.a(xstoxflt.o)
                  0x000b26                  _Stoxflt
 .libc            0x000d10         0xf2 c:/microchip/mplab c30/bin/bin/../../lib\libc-coff.a(xldscale.o)
                  0x000d10                  _LDscale
 .libc            0x000e02        0x17a c:/microchip/mplab c30/bin/bin/../../lib\libc-coff.a(xldtento.o)
                  0x000e36                  _LDtento
 .libc            0x000f7c          0xa c:/microchip/mplab c30/bin/bin/../../lib\libc-coff.a(xvacopy.o)
                  0x000f7c                  _Vacopy
 .libc            0x000f86        0x2e6 c:/microchip/mplab c30/bin/bin/../../lib\libc-coff.a(xputfld.do)
                  0x000f86                  __iPutfld
                  0x000f86                  __dPutfld
 .libc            0x00126c        0x194 c:/microchip/mplab c30/bin/bin/../../lib\libc-coff.a(xputtxt.o)
                  0x00126c                  _Puttxt
 .libc            0x001400         0x1c c:/microchip/mplab c30/bin/bin/../../lib\libc-coff.a(isalnum.os)
                  0x001400                  isalnum
 .libc            0x00141c         0x98 c:/microchip/mplab c30/bin/bin/../../lib\libc-coff.a(xdnorm.o)
                  0x00141c                  _Dnorm
 .libc            0x0014b4         0x58 c:/microchip/mplab c30/bin/bin/../../lib\libc-coff.a(xldunsca.o)
                  0x0014b4                  _LDunscale
 .libc            0x00150c         0x16 c:/microchip/mplab c30/bin/bin/../../lib\libc-coff.a(xferaise.o)
                  0x00150c                  _Feraise
 .libc            0x001522        0x452 c:/microchip/mplab c30/bin/bin/../../lib\libc-coff.a(xldtob.o)
                  0x001522                  _Ldtob
 .libc            0x001974        0x170 c:/microchip/mplab c30/bin/bin/../../lib\libc-coff.a(xlitob.o)
                  0x001974                  _Litob
 .libc            0x001ae4         0x3a c:/microchip/mplab c30/bin/bin/../../lib\libc-coff.a(ldiv.o)
                  0x001ae4                  ldiv
 .libc            0x001b1e        0x268 c:/microchip/mplab c30/bin/bin/../../lib\libc-coff.a(xgenld.o)
                  0x001b1e                  _Genld
 .libc            0x001d86         0x16 c:/microchip/mplab c30/bin/bin/../../lib\libc-coff.a(div.o)
                  0x001d86                  div
 *(.libm)
 .libm            0x001d9c         0x1e c:/microchip/mplab c30/bin/bin/../../lib\libm-coff.a(modsi3.o)
                  0x001d9c                  __modsi3
 .libm            0x001dba          0xa c:/microchip/mplab c30/bin/bin/../../lib\libm-coff.a(dgtge.o)
                  0x001dba                  __gtdf2
                  0x001dba                  __gedf2
 .libm            0x001dc4          0xa c:/microchip/mplab c30/bin/bin/../../lib\libm-coff.a(deqltle.o)
                  0x001dc4                  __eqdf2
                  0x001dc4                  __ltdf2
                  0x001dc4                  __ledf2
 .libm            0x001dce         0x4c c:/microchip/mplab c30/bin/bin/../../lib\libm-coff.a(fixunsdfsi.o)
                  0x001dce                  __fixunsdfsi
 .libm            0x001e1a          0xa c:/microchip/mplab c30/bin/bin/../../lib\libm-coff.a(dne.o)
                  0x001e1a                  __nedf2
 .libm            0x001e24         0x62 c:/microchip/mplab c30/bin/bin/../../lib\libm-coff.a(fixunsdfdi.o)
                  0x001e24                  __fixunsdfdi
 .libm            0x001e86          0x6 c:/microchip/mplab c30/bin/bin/../../lib\libm-coff.a(floatsidf.o)
                  0x001e86                  __floatsidf
 .libm            0x001e8c        0x23c c:/microchip/mplab c30/bin/bin/../../lib\libm-coff.a(pow.o)
                  0x001e8c                  pow
                  0x001e8c                  powl
 .libm            0x0020c8         0x58 c:/microchip/mplab c30/bin/bin/../../lib\libm-coff.a(fixdfsi.o)
                  0x0020c8                  __fixdfsi
 .libm            0x002120         0xfa c:/microchip/mplab c30/bin/bin/../../lib\libm-coff.a(adddf3.o)
                  0x002120                  __adddf3
 .libm            0x00221a         0xea c:/microchip/mplab c30/bin/bin/../../lib\libm-coff.a(muldf3.o)
                  0x00221a                  __muldf3
 .libm            0x002304          0x4 c:/microchip/mplab c30/bin/bin/../../lib\libm-coff.a(subdf3.o)
                  0x002304                  __subdf3
 .libm            0x002308         0xb4 c:/microchip/mplab c30/bin/bin/../../lib\libm-coff.a(divdf3.o)
                  0x002308                  __divdf3
 .libm            0x0023bc         0xa0 c:/microchip/mplab c30/bin/bin/../../lib\libm-coff.a(sqrt.o)
                  0x0023bc                  sqrtl
                  0x0023bc                  sqrt
 .libm            0x00245c         0x56 c:/microchip/mplab c30/bin/bin/../../lib\libm-coff.a(truncdfsf.o)
                  0x00245c                  __truncdfsf2
 .libm            0x0024b2         0x68 c:/microchip/mplab c30/bin/bin/../../lib\libm-coff.a(mulsf3.o)
                  0x0024b2                  __mulsf3
 .libm            0x00251a         0x3e c:/microchip/mplab c30/bin/bin/../../lib\libm-coff.a(extendsfdf.o)
                  0x00251a                  __extendsfdf2
 .libm            0x002558         0xbc c:/microchip/mplab c30/bin/bin/../../lib\libm-coff.a(addsf3.o)
                  0x002558                  __subsf3
                  0x00255a                  __addsf3
 .libm            0x002614          0x4 c:/microchip/mplab c30/bin/bin/../../lib\libm-coff.a(fgtge.o)
                  0x002614                  __gesf2
                  0x002614                  __gtsf2
 .libm            0x002618         0x12 c:/microchip/mplab c30/bin/bin/../../lib\libm-coff.a(floor.o)
                  0x002618                  floor
                  0x002618                  floorl
 .libm            0x00262a          0x4 c:/microchip/mplab c30/bin/bin/../../lib\libm-coff.a(sin.o)
                  0x00262a                  sin
                  0x00262a                  sinl
 .libm            0x00262e          0x4 c:/microchip/mplab c30/bin/bin/../../lib\libm-coff.a(cos.o)
                  0x00262e                  cos
                  0x00262e                  cosl
 .libm            0x002632        0x16c c:/microchip/mplab c30/bin/bin/../../lib\libm-coff.a(atan.o)
                  0x002632                  atanl
                  0x002632                  atan
 .libm            0x00279e          0x4 c:/microchip/mplab c30/bin/bin/../../lib\libm-coff.a(acos.o)
                  0x00279e                  acos
                  0x00279e                  acosl
 .libm            0x0027a2         0x1e c:/microchip/mplab c30/bin/bin/../../lib\libm-coff.a(divsi3.o)
                  0x0027a2                  __divsi3
 .libm            0x0027c0        0x130 c:/microchip/mplab c30/bin/bin/../../lib\libm-coff.a(exp.o)
                  0x0027c0                  exp
                  0x0027c0                  expl
 .libm            0x0028f0         0x18 c:/microchip/mplab c30/bin/bin/../../lib\libm-coff.a(cosh.o)
                  0x0028f0                  cosh
                  0x0028f0                  coshl
 .libm            0x002908         0xc8 c:/microchip/mplab c30/bin/bin/../../lib\libm-coff.a(sinh.o)
                  0x002908                  sinhl
                  0x002908                  sinh
 .libm            0x0029d0         0x62 c:/microchip/mplab c30/bin/bin/../../lib\libm-coff.a(atan2.o)
                  0x0029d0                  atan2
                  0x0029d0                  atan2l
 .libm            0x002a32        0x130 c:/microchip/mplab c30/bin/bin/../../lib\libm-coff.a(log.o)
                  0x002a32                  log
                  0x002a32                  logl
 .libm            0x002b62        0x14c c:/microchip/mplab c30/bin/bin/../../lib\libm-coff.a(tan.o)
                  0x002b62                  tanl
                  0x002b62                  tan
 .libm            0x002cae          0x4 c:/microchip/mplab c30/bin/bin/../../lib\libm-coff.a(asin.o)
                  0x002cae                  asin
                  0x002cae                  asinl
 .libm            0x002cb2        0x100 c:/microchip/mplab c30/bin/bin/../../lib\libm-coff.a(tanh.o)
                  0x002cb2                  tanhl
                  0x002cb2                  tanh
 .libm            0x002db2          0x6 c:/microchip/mplab c30/bin/bin/../../lib\libm-coff.a(umodsi3.o)
                  0x002db2                  __umodsi3
 .libm            0x002db8         0x52 c:/microchip/mplab c30/bin/bin/../../lib\libm-coff.a(dcompare.o)
                  0x002db8                  _dcompare
 .libm            0x002e0a         0x4e c:/microchip/mplab c30/bin/bin/../../lib\libm-coff.a(dunpack.o)
                  0x002e0a                  _dunpack
 .libm            0x002e58         0x32 c:/microchip/mplab c30/bin/bin/../../lib\libm-coff.a(dunpack2.o)
                  0x002e58                  _dunpack2
                  0x002e7a                  _dreturnNaN
                  0x002e80                  _dunpack2exit
 .libm            0x002e8a         0x6e c:/microchip/mplab c30/bin/bin/../../lib\libm-coff.a(floatdidf.o)
                  0x002e8a                  __floatdidf
 .libm            0x002ef8         0x24 c:/microchip/mplab c30/bin/bin/../../lib\libm-coff.a(dtype.o)
                  0x002ef8                  _dtype
 .libm            0x002f1c         0x88 c:/microchip/mplab c30/bin/bin/../../lib\libm-coff.a(dchop.o)
                  0x002f1c                  _dchop
 .libm            0x002fa4         0x3a c:/microchip/mplab c30/bin/bin/../../lib\libm-coff.a(frexp.o)
                  0x002fa4                  frexp
                  0x002fa4                  frexpl
 .libm            0x002fde         0x66 c:/microchip/mplab c30/bin/bin/../../lib\libm-coff.a(ldexp.o)
                  0x002fde                  ldexp
                  0x002fde                  ldexpl
 .libm            0x003044         0x58 c:/microchip/mplab c30/bin/bin/../../lib\libm-coff.a(dpack.o)
                  0x003044                  _dpack
 .libm            0x00309c         0x4c c:/microchip/mplab c30/bin/bin/../../lib\libm-coff.a(fpack.o)
                  0x00309c                  _fpack
 .libm            0x0030e8         0x10 c:/microchip/mplab c30/bin/bin/../../lib\libm-coff.a(funpack2.o)
                  0x0030e8                  _funpack2
 .libm            0x0030f8         0x20 c:/microchip/mplab c30/bin/bin/../../lib\libm-coff.a(futil.o)
                  0x0030f8                  _fPropagateNaN
                  0x00310a                  _fbopExit
                  0x003112                  _fbopReturnNaN
 .libm            0x003118         0x2a c:/microchip/mplab c30/bin/bin/../../lib\libm-coff.a(funpack.o)
                  0x003118                  _funpack
 .libm            0x003142         0x36 c:/microchip/mplab c30/bin/bin/../../lib\libm-coff.a(fcompare.o)
                  0x003142                  _fcompare
 .libm            0x003178        0x15a c:/microchip/mplab c30/bin/bin/../../lib\libm-coff.a(sincos.o)
                  0x003178                  _sincos
 .libm            0x0032d2        0x17e c:/microchip/mplab c30/bin/bin/../../lib\libm-coff.a(asinacos.o)
                  0x0032d2                  _asinacos
 .libm            0x003450         0x20 c:/microchip/mplab c30/bin/bin/../../lib\libm-coff.a(udivsi3.o)
                  0x003450                  __udivsi3
 .libm            0x003470         0x68 c:/microchip/mplab c30/bin/bin/../../lib\libm-coff.a(sinhcosh.o)
                  0x003470                  __sinhcosh
 .libm            0x0034d8          0x8 c:/microchip/mplab c30/bin/bin/../../lib\libm-coff.a(fmod.o)
                  0x0034d8                  fmod
                  0x0034d8                  fmodl
 .libm            0x0034e0         0x1c c:/microchip/mplab c30/bin/bin/../../lib\libm-coff.a(dpropagateNaN.o)
                  0x0034e0                  _dPropagateNaN
 .libm            0x0034fc         0xd0 c:/microchip/mplab c30/bin/bin/../../lib\libm-coff.a(dmodrem.o)
                  0x0034fc                  _dmodrem
 .libm            0x0035cc          0xc c:/microchip/mplab c30/bin/bin/../../lib\libm-coff.a(mulsi3.o)
                  0x0035cc                  __mulsi3
 .libm            0x0035d8        0x216 c:/microchip/mplab c30/bin/bin/../../lib\libm-coff.a(divmoddi3.o)
                  0x0035fe                  __udivmoddi3
                  0x0036cc                  __udivdi3
                  0x0036da                  __umoddi3
                  0x0036e2                  __divdi3
                  0x00371c                  __moddi3
 .libm            0x0037ee         0x5c c:/microchip/mplab c30/bin/bin/../../lib\libm-coff.a(muldi3.o)
                  0x0037ee                  __muldi3
 .libm            0x00384a         0x44 c:/microchip/mplab c30/bin/bin/../../lib\libm-coff.a(umuldi3.o)
                  0x00384a                  __umuldi3
 *(.libdsp)
 *(.lib*)
 .libperi         0x00388e          0x8 uWatch-Main.o
                  0x00388e                  OpenTimer1
 .libperi         0x003896         0x22 RTCCInitClock.o
                  0x003896                  RtccInitClock
 .libperi         0x0038b8         0x34 RtccReadTime.o
                  0x0038b8                  RtccReadTime
 .libperi         0x0038ec         0x3c RtccReadDate.o
                  0x0038ec                  RtccReadDate
 .libperi         0x003928         0x2e RtccWrOn.o
                  0x003928                  RtccWrOn
 .libperi         0x003956         0xd0 RtccWriteDate.o
                  0x003956                  RtccWriteDate
 .libperi         0x003a26         0xc8 RtccWriteTime.o
                  0x003a26                  RtccWriteTime

__CONFIG2         0x00abfc          0x2
 *(__CONFIG2.sec)
 __CONFIG2.sec    0x00abfc          0x2 uWatch-Main.o

__CONFIG1         0x00abfe          0x2
 *(__CONFIG1.sec)
 __CONFIG1.sec    0x00abfe          0x2 uWatch-Main.o

.comment
 *(.comment)

.debug_info
 *(.debug_info)
 *(.gnu.linkonce.wi.*)

.debug_abbrev
 *(.debug_abbrev)

.debug_line
 *(.debug_line)

.debug_frame
 *(.debug_frame)

.debug_str
 *(.debug_str)

.debug_loc
 *(.debug_loc)

.debug_macinfo
 *(.debug_macinfo)

.debug_pubnames
 *(.debug_pubnames)

.debug_ranges
 *(.debug_ranges)

.debug_aranges
 *(.debug_aranges)

.ivt              0x000004         0xfc
                  0x000004          0x4 LONG 0x913a DEFINED (__ReservedTrap0)?<code 337> (__ReservedTrap0):<code 337> (__DefaultInterrupt)
                  0x000006          0x4 LONG 0x913a DEFINED (__OscillatorFail)?<code 337> (__OscillatorFail):<code 337> (__DefaultInterrupt)
                  0x000008          0x4 LONG 0x913a DEFINED (__AddressError)?<code 337> (__AddressError):<code 337> (__DefaultInterrupt)
                  0x00000a          0x4 LONG 0x913a DEFINED (__StackError)?<code 337> (__StackError):<code 337> (__DefaultInterrupt)
                  0x00000c          0x4 LONG 0x913a DEFINED (__MathError)?<code 337> (__MathError):<code 337> (__DefaultInterrupt)
                  0x00000e          0x4 LONG 0x913a DEFINED (__ReservedTrap5)?<code 337> (__ReservedTrap5):<code 337> (__DefaultInterrupt)
                  0x000010          0x4 LONG 0x913a DEFINED (__ReservedTrap6)?<code 337> (__ReservedTrap6):<code 337> (__DefaultInterrupt)
                  0x000012          0x4 LONG 0x913a DEFINED (__ReservedTrap7)?<code 337> (__ReservedTrap7):<code 337> (__DefaultInterrupt)
                  0x000014          0x4 LONG 0x913a DEFINED (__INT0Interrupt)?<code 337> (__INT0Interrupt):<code 337> (__DefaultInterrupt)
                  0x000016          0x4 LONG 0x913a DEFINED (__IC1Interrupt)?<code 337> (__IC1Interrupt):<code 337> (__DefaultInterrupt)
                  0x000018          0x4 LONG 0x913a DEFINED (__OC1Interrupt)?<code 337> (__OC1Interrupt):<code 337> (__DefaultInterrupt)
                  0x00001a          0x4 LONG 0x6c74 DEFINED (__T1Interrupt)?<code 337> (__T1Interrupt):<code 337> (__DefaultInterrupt)
                  0x00001c          0x4 LONG 0x913a DEFINED (__Interrupt4)?<code 337> (__Interrupt4):<code 337> (__DefaultInterrupt)
                  0x00001e          0x4 LONG 0x913a DEFINED (__IC2Interrupt)?<code 337> (__IC2Interrupt):<code 337> (__DefaultInterrupt)
                  0x000020          0x4 LONG 0x913a DEFINED (__OC2Interrupt)?<code 337> (__OC2Interrupt):<code 337> (__DefaultInterrupt)
                  0x000022          0x4 LONG 0x913a DEFINED (__T2Interrupt)?<code 337> (__T2Interrupt):<code 337> (__DefaultInterrupt)
                  0x000024          0x4 LONG 0x913a DEFINED (__T3Interrupt)?<code 337> (__T3Interrupt):<code 337> (__DefaultInterrupt)
                  0x000026          0x4 LONG 0x913a DEFINED (__SPI1ErrInterrupt)?<code 337> (__SPI1ErrInterrupt):<code 337> (__DefaultInterrupt)
                  0x000028          0x4 LONG 0x913a DEFINED (__SPI1Interrupt)?<code 337> (__SPI1Interrupt):<code 337> (__DefaultInterrupt)
                  0x00002a          0x4 LONG 0x913a DEFINED (__U1RXInterrupt)?<code 337> (__U1RXInterrupt):<code 337> (__DefaultInterrupt)
                  0x00002c          0x4 LONG 0x913a DEFINED (__U1TXInterrupt)?<code 337> (__U1TXInterrupt):<code 337> (__DefaultInterrupt)
                  0x00002e          0x4 LONG 0x913a DEFINED (__ADC1Interrupt)?<code 337> (__ADC1Interrupt):<code 337> (__DefaultInterrupt)
                  0x000030          0x4 LONG 0x913a DEFINED (__Interrupt14)?<code 337> (__Interrupt14):<code 337> (__DefaultInterrupt)
                  0x000032          0x4 LONG 0x913a DEFINED (__Interrupt15)?<code 337> (__Interrupt15):<code 337> (__DefaultInterrupt)
                  0x000034          0x4 LONG 0x913a DEFINED (__SI2C1Interrupt)?<code 337> (__SI2C1Interrupt):<code 337> (__DefaultInterrupt)
                  0x000036          0x4 LONG 0x913a DEFINED (__MI2C1Interrupt)?<code 337> (__MI2C1Interrupt):<code 337> (__DefaultInterrupt)
                  0x000038          0x4 LONG 0x913a DEFINED (__CompInterrupt)?<code 337> (__CompInterrupt):<code 337> (__DefaultInterrupt)
                  0x00003a          0x4 LONG 0x913a DEFINED (__CNInterrupt)?<code 337> (__CNInterrupt):<code 337> (__DefaultInterrupt)
                  0x00003c          0x4 LONG 0x913a DEFINED (__INT1Interrupt)?<code 337> (__INT1Interrupt):<code 337> (__DefaultInterrupt)
                  0x00003e          0x4 LONG 0x913a DEFINED (__Interrupt21)?<code 337> (__Interrupt21):<code 337> (__DefaultInterrupt)
                  0x000040          0x4 LONG 0x913a DEFINED (__Interrupt22)?<code 337> (__Interrupt22):<code 337> (__DefaultInterrupt)
                  0x000042          0x4 LONG 0x913a DEFINED (__Interrupt23)?<code 337> (__Interrupt23):<code 337> (__DefaultInterrupt)
                  0x000044          0x4 LONG 0x913a DEFINED (__Interrupt24)?<code 337> (__Interrupt24):<code 337> (__DefaultInterrupt)
                  0x000046          0x4 LONG 0x913a DEFINED (__OC3Interrupt)?<code 337> (__OC3Interrupt):<code 337> (__DefaultInterrupt)
                  0x000048          0x4 LONG 0x913a DEFINED (__OC4Interrupt)?<code 337> (__OC4Interrupt):<code 337> (__DefaultInterrupt)
                  0x00004a          0x4 LONG 0x913a DEFINED (__T4Interrupt)?<code 337> (__T4Interrupt):<code 337> (__DefaultInterrupt)
                  0x00004c          0x4 LONG 0x913a DEFINED (__T5Interrupt)?<code 337> (__T5Interrupt):<code 337> (__DefaultInterrupt)
                  0x00004e          0x4 LONG 0x913a DEFINED (__INT2Interrupt)?<code 337> (__INT2Interrupt):<code 337> (__DefaultInterrupt)
                  0x000050          0x4 LONG 0x913a DEFINED (__U2RXInterrupt)?<code 337> (__U2RXInterrupt):<code 337> (__DefaultInterrupt)
                  0x000052          0x4 LONG 0x913a DEFINED (__U2TXInterrupt)?<code 337> (__U2TXInterrupt):<code 337> (__DefaultInterrupt)
                  0x000054          0x4 LONG 0x913a DEFINED (__SPI2ErrInterrupt)?<code 337> (__SPI2ErrInterrupt):<code 337> (__DefaultInterrupt)
                  0x000056          0x4 LONG 0x913a DEFINED (__SPI2Interrupt)?<code 337> (__SPI2Interrupt):<code 337> (__DefaultInterrupt)
                  0x000058          0x4 LONG 0x913a DEFINED (__Interrupt34)?<code 337> (__Interrupt34):<code 337> (__DefaultInterrupt)
                  0x00005a          0x4 LONG 0x913a DEFINED (__Interrupt35)?<code 337> (__Interrupt35):<code 337> (__DefaultInterrupt)
                  0x00005c          0x4 LONG 0x913a DEFINED (__Interrupt36)?<code 337> (__Interrupt36):<code 337> (__DefaultInterrupt)
                  0x00005e          0x4 LONG 0x913a DEFINED (__IC3Interrupt)?<code 337> (__IC3Interrupt):<code 337> (__DefaultInterrupt)
                  0x000060          0x4 LONG 0x913a DEFINED (__IC4Interrupt)?<code 337> (__IC4Interrupt):<code 337> (__DefaultInterrupt)
                  0x000062          0x4 LONG 0x913a DEFINED (__IC5Interrupt)?<code 337> (__IC5Interrupt):<code 337> (__DefaultInterrupt)
                  0x000064          0x4 LONG 0x913a DEFINED (__Interrupt40)?<code 337> (__Interrupt40):<code 337> (__DefaultInterrupt)
                  0x000066          0x4 LONG 0x913a DEFINED (__OC5Interrupt)?<code 337> (__OC5Interrupt):<code 337> (__DefaultInterrupt)
                  0x000068          0x4 LONG 0x913a DEFINED (__Interrupt42)?<code 337> (__Interrupt42):<code 337> (__DefaultInterrupt)
                  0x00006a          0x4 LONG 0x913a DEFINED (__Interrupt43)?<code 337> (__Interrupt43):<code 337> (__DefaultInterrupt)
                  0x00006c          0x4 LONG 0x913a DEFINED (__Interrupt44)?<code 337> (__Interrupt44):<code 337> (__DefaultInterrupt)
                  0x00006e          0x4 LONG 0x913a DEFINED (__PMPInterrupt)?<code 337> (__PMPInterrupt):<code 337> (__DefaultInterrupt)
                  0x000070          0x4 LONG 0x913a DEFINED (__Interrupt46)?<code 337> (__Interrupt46):<code 337> (__DefaultInterrupt)
                  0x000072          0x4 LONG 0x913a DEFINED (__Interrupt47)?<code 337> (__Interrupt47):<code 337> (__DefaultInterrupt)
                  0x000074          0x4 LONG 0x913a DEFINED (__Interrupt48)?<code 337> (__Interrupt48):<code 337> (__DefaultInterrupt)
                  0x000076          0x4 LONG 0x913a DEFINED (__SI2C2Interrupt)?<code 337> (__SI2C2Interrupt):<code 337> (__DefaultInterrupt)
                  0x000078          0x4 LONG 0x913a DEFINED (__MI2C2Interrupt)?<code 337> (__MI2C2Interrupt):<code 337> (__DefaultInterrupt)
                  0x00007a          0x4 LONG 0x913a DEFINED (__Interrupt51)?<code 337> (__Interrupt51):<code 337> (__DefaultInterrupt)
                  0x00007c          0x4 LONG 0x913a DEFINED (__Interrupt52)?<code 337> (__Interrupt52):<code 337> (__DefaultInterrupt)
                  0x00007e          0x4 LONG 0x913a DEFINED (__Interrupt53)?<code 337> (__Interrupt53):<code 337> (__DefaultInterrupt)
                  0x000080          0x4 LONG 0x913a DEFINED (__Interrupt54)?<code 337> (__Interrupt54):<code 337> (__DefaultInterrupt)
                  0x000082          0x4 LONG 0x913a DEFINED (__Interrupt55)?<code 337> (__Interrupt55):<code 337> (__DefaultInterrupt)
                  0x000084          0x4 LONG 0x913a DEFINED (__Interrupt56)?<code 337> (__Interrupt56):<code 337> (__DefaultInterrupt)
                  0x000086          0x4 LONG 0x913a DEFINED (__Interrupt57)?<code 337> (__Interrupt57):<code 337> (__DefaultInterrupt)
                  0x000088          0x4 LONG 0x913a DEFINED (__Interrupt58)?<code 337> (__Interrupt58):<code 337> (__DefaultInterrupt)
                  0x00008a          0x4 LONG 0x913a DEFINED (__Interrupt59)?<code 337> (__Interrupt59):<code 337> (__DefaultInterrupt)
                  0x00008c          0x4 LONG 0x913a DEFINED (__Interrupt60)?<code 337> (__Interrupt60):<code 337> (__DefaultInterrupt)
                  0x00008e          0x4 LONG 0x913a DEFINED (__Interrupt61)?<code 337> (__Interrupt61):<code 337> (__DefaultInterrupt)
                  0x000090          0x4 LONG 0x913a DEFINED (__RTCCInterrupt)?<code 337> (__RTCCInterrupt):<code 337> (__DefaultInterrupt)
                  0x000092          0x4 LONG 0x913a DEFINED (__Interrupt63)?<code 337> (__Interrupt63):<code 337> (__DefaultInterrupt)
                  0x000094          0x4 LONG 0x913a DEFINED (__Interrupt64)?<code 337> (__Interrupt64):<code 337> (__DefaultInterrupt)
                  0x000096          0x4 LONG 0x913a DEFINED (__U1ErrInterrupt)?<code 337> (__U1ErrInterrupt):<code 337> (__DefaultInterrupt)
                  0x000098          0x4 LONG 0x913a DEFINED (__U2ErrInterrupt)?<code 337> (__U2ErrInterrupt):<code 337> (__DefaultInterrupt)
                  0x00009a          0x4 LONG 0x913a DEFINED (__CRCInterrupt)?<code 337> (__CRCInterrupt):<code 337> (__DefaultInterrupt)
                  0x00009c          0x4 LONG 0x913a DEFINED (__Interrupt68)?<code 337> (__Interrupt68):<code 337> (__DefaultInterrupt)
                  0x00009e          0x4 LONG 0x913a DEFINED (__Interrupt69)?<code 337> (__Interrupt69):<code 337> (__DefaultInterrupt)
                  0x0000a0          0x4 LONG 0x913a DEFINED (__Interrupt70)?<code 337> (__Interrupt70):<code 337> (__DefaultInterrupt)
                  0x0000a2          0x4 LONG 0x913a DEFINED (__Interrupt71)?<code 337> (__Interrupt71):<code 337> (__DefaultInterrupt)
                  0x0000a4          0x4 LONG 0x913a DEFINED (__LVDInterrupt)?<code 337> (__LVDInterrupt):<code 337> (__DefaultInterrupt)
                  0x0000a6          0x4 LONG 0x913a DEFINED (__Interrupt73)?<code 337> (__Interrupt73):<code 337> (__DefaultInterrupt)
                  0x0000a8          0x4 LONG 0x913a DEFINED (__Interrupt74)?<code 337> (__Interrupt74):<code 337> (__DefaultInterrupt)
                  0x0000aa          0x4 LONG 0x913a DEFINED (__Interrupt75)?<code 337> (__Interrupt75):<code 337> (__DefaultInterrupt)
                  0x0000ac          0x4 LONG 0x913a DEFINED (__Interrupt76)?<code 337> (__Interrupt76):<code 337> (__DefaultInterrupt)
                  0x0000ae          0x4 LONG 0x913a DEFINED (__Interrupt77)?<code 337> (__Interrupt77):<code 337> (__DefaultInterrupt)
                  0x0000b0          0x4 LONG 0x913a DEFINED (__Interrupt78)?<code 337> (__Interrupt78):<code 337> (__DefaultInterrupt)
                  0x0000b2          0x4 LONG 0x913a DEFINED (__Interrupt79)?<code 337> (__Interrupt79):<code 337> (__DefaultInterrupt)
                  0x0000b4          0x4 LONG 0x913a DEFINED (__Interrupt80)?<code 337> (__Interrupt80):<code 337> (__DefaultInterrupt)
                  0x0000b6          0x4 LONG 0x913a DEFINED (__Interrupt81)?<code 337> (__Interrupt81):<code 337> (__DefaultInterrupt)
                  0x0000b8          0x4 LONG 0x913a DEFINED (__Interrupt82)?<code 337> (__Interrupt82):<code 337> (__DefaultInterrupt)
                  0x0000ba          0x4 LONG 0x913a DEFINED (__Interrupt83)?<code 337> (__Interrupt83):<code 337> (__DefaultInterrupt)
                  0x0000bc          0x4 LONG 0x913a DEFINED (__Interrupt84)?<code 337> (__Interrupt84):<code 337> (__DefaultInterrupt)
                  0x0000be          0x4 LONG 0x913a DEFINED (__Interrupt85)?<code 337> (__Interrupt85):<code 337> (__DefaultInterrupt)
                  0x0000c0          0x4 LONG 0x913a DEFINED (__Interrupt86)?<code 337> (__Interrupt86):<code 337> (__DefaultInterrupt)
                  0x0000c2          0x4 LONG 0x913a DEFINED (__Interrupt87)?<code 337> (__Interrupt87):<code 337> (__DefaultInterrupt)
                  0x0000c4          0x4 LONG 0x913a DEFINED (__Interrupt88)?<code 337> (__Interrupt88):<code 337> (__DefaultInterrupt)
                  0x0000c6          0x4 LONG 0x913a DEFINED (__Interrupt89)?<code 337> (__Interrupt89):<code 337> (__DefaultInterrupt)
                  0x0000c8          0x4 LONG 0x913a DEFINED (__Interrupt90)?<code 337> (__Interrupt90):<code 337> (__DefaultInterrupt)
                  0x0000ca          0x4 LONG 0x913a DEFINED (__Interrupt91)?<code 337> (__Interrupt91):<code 337> (__DefaultInterrupt)
                  0x0000cc          0x4 LONG 0x913a DEFINED (__Interrupt92)?<code 337> (__Interrupt92):<code 337> (__DefaultInterrupt)
                  0x0000ce          0x4 LONG 0x913a DEFINED (__Interrupt93)?<code 337> (__Interrupt93):<code 337> (__DefaultInterrupt)
                  0x0000d0          0x4 LONG 0x913a DEFINED (__Interrupt94)?<code 337> (__Interrupt94):<code 337> (__DefaultInterrupt)
                  0x0000d2          0x4 LONG 0x913a DEFINED (__Interrupt95)?<code 337> (__Interrupt95):<code 337> (__DefaultInterrupt)
                  0x0000d4          0x4 LONG 0x913a DEFINED (__Interrupt96)?<code 337> (__Interrupt96):<code 337> (__DefaultInterrupt)
                  0x0000d6          0x4 LONG 0x913a DEFINED (__Interrupt97)?<code 337> (__Interrupt97):<code 337> (__DefaultInterrupt)
                  0x0000d8          0x4 LONG 0x913a DEFINED (__Interrupt98)?<code 337> (__Interrupt98):<code 337> (__DefaultInterrupt)
                  0x0000da          0x4 LONG 0x913a DEFINED (__Interrupt99)?<code 337> (__Interrupt99):<code 337> (__DefaultInterrupt)
                  0x0000dc          0x4 LONG 0x913a DEFINED (__Interrupt100)?<code 337> (__Interrupt100):<code 337> (__DefaultInterrupt)
                  0x0000de          0x4 LONG 0x913a DEFINED (__Interrupt101)?<code 337> (__Interrupt101):<code 337> (__DefaultInterrupt)
                  0x0000e0          0x4 LONG 0x913a DEFINED (__Interrupt102)?<code 337> (__Interrupt102):<code 337> (__DefaultInterrupt)
                  0x0000e2          0x4 LONG 0x913a DEFINED (__Interrupt103)?<code 337> (__Interrupt103):<code 337> (__DefaultInterrupt)
                  0x0000e4          0x4 LONG 0x913a DEFINED (__Interrupt104)?<code 337> (__Interrupt104):<code 337> (__DefaultInterrupt)
                  0x0000e6          0x4 LONG 0x913a DEFINED (__Interrupt105)?<code 337> (__Interrupt105):<code 337> (__DefaultInterrupt)
                  0x0000e8          0x4 LONG 0x913a DEFINED (__Interrupt106)?<code 337> (__Interrupt106):<code 337> (__DefaultInterrupt)
                  0x0000ea          0x4 LONG 0x913a DEFINED (__Interrupt107)?<code 337> (__Interrupt107):<code 337> (__DefaultInterrupt)
                  0x0000ec          0x4 LONG 0x913a DEFINED (__Interrupt108)?<code 337> (__Interrupt108):<code 337> (__DefaultInterrupt)
                  0x0000ee          0x4 LONG 0x913a DEFINED (__Interrupt109)?<code 337> (__Interrupt109):<code 337> (__DefaultInterrupt)
                  0x0000f0          0x4 LONG 0x913a DEFINED (__Interrupt110)?<code 337> (__Interrupt110):<code 337> (__DefaultInterrupt)
                  0x0000f2          0x4 LONG 0x913a DEFINED (__Interrupt111)?<code 337> (__Interrupt111):<code 337> (__DefaultInterrupt)
                  0x0000f4          0x4 LONG 0x913a DEFINED (__Interrupt112)?<code 337> (__Interrupt112):<code 337> (__DefaultInterrupt)
                  0x0000f6          0x4 LONG 0x913a DEFINED (__Interrupt113)?<code 337> (__Interrupt113):<code 337> (__DefaultInterrupt)
                  0x0000f8          0x4 LONG 0x913a DEFINED (__Interrupt114)?<code 337> (__Interrupt114):<code 337> (__DefaultInterrupt)
                  0x0000fa          0x4 LONG 0x913a DEFINED (__Interrupt115)?<code 337> (__Interrupt115):<code 337> (__DefaultInterrupt)
                  0x0000fc          0x4 LONG 0x913a DEFINED (__Interrupt116)?<code 337> (__Interrupt116):<code 337> (__DefaultInterrupt)
                  0x0000fe          0x4 LONG 0x913a DEFINED (__Interrupt117)?<code 337> (__Interrupt117):<code 337> (__DefaultInterrupt)

.aivt             0x000104         0xfc
                  0x000104          0x4 LONG 0x913a DEFINED (__AltReservedTrap0)?<code 337> (__AltReservedTrap0):DEFINED (__ReservedTrap0)?<code 337> (__ReservedTrap0):<code 337> (__DefaultInterrupt)
                  0x000106          0x4 LONG 0x913a DEFINED (__AltOscillatorFail)?<code 337> (__AltOscillatorFail):DEFINED (__OscillatorFail)?<code 337> (__OscillatorFail):<code 337> (__DefaultInterrupt)
                  0x000108          0x4 LONG 0x913a DEFINED (__AltAddressError)?<code 337> (__AltAddressError):DEFINED (__AddressError)?<code 337> (__AddressError):<code 337> (__DefaultInterrupt)
                  0x00010a          0x4 LONG 0x913a DEFINED (__AltStackError)?<code 337> (__AltStackError):DEFINED (__StackError)?<code 337> (__StackError):<code 337> (__DefaultInterrupt)
                  0x00010c          0x4 LONG 0x913a DEFINED (__AltMathError)?<code 337> (__AltMathError):DEFINED (__MathError)?<code 337> (__MathError):<code 337> (__DefaultInterrupt)
                  0x00010e          0x4 LONG 0x913a DEFINED (__AltReservedTrap5)?<code 337> (__AltReservedTrap5):DEFINED (__ReservedTrap5)?<code 337> (__ReservedTrap5):<code 337> (__DefaultInterrupt)
                  0x000110          0x4 LONG 0x913a DEFINED (__AltReservedTrap6)?<code 337> (__AltReservedTrap6):DEFINED (__ReservedTrap6)?<code 337> (__ReservedTrap6):<code 337> (__DefaultInterrupt)
                  0x000112          0x4 LONG 0x913a DEFINED (__AltReservedTrap7)?<code 337> (__AltReservedTrap7):DEFINED (__ReservedTrap7)?<code 337> (__ReservedTrap7):<code 337> (__DefaultInterrupt)
                  0x000114          0x4 LONG 0x913a DEFINED (__AltINT0Interrupt)?<code 337> (__AltINT0Interrupt):DEFINED (__INT0Interrupt)?<code 337> (__INT0Interrupt):<code 337> (__DefaultInterrupt)
                  0x000116          0x4 LONG 0x913a DEFINED (__AltIC1Interrupt)?<code 337> (__AltIC1Interrupt):DEFINED (__IC1Interrupt)?<code 337> (__IC1Interrupt):<code 337> (__DefaultInterrupt)
                  0x000118          0x4 LONG 0x913a DEFINED (__AltOC1Interrupt)?<code 337> (__AltOC1Interrupt):DEFINED (__OC1Interrupt)?<code 337> (__OC1Interrupt):<code 337> (__DefaultInterrupt)
                  0x00011a          0x4 LONG 0x6c74 DEFINED (__AltT1Interrupt)?<code 337> (__AltT1Interrupt):DEFINED (__T1Interrupt)?<code 337> (__T1Interrupt):<code 337> (__DefaultInterrupt)
                  0x00011c          0x4 LONG 0x913a DEFINED (__AltInterrupt4)?<code 337> (__AltInterrupt4):DEFINED (__Interrupt4)?<code 337> (__Interrupt4):<code 337> (__DefaultInterrupt)
                  0x00011e          0x4 LONG 0x913a DEFINED (__AltIC2Interrupt)?<code 337> (__AltIC2Interrupt):DEFINED (__IC2Interrupt)?<code 337> (__IC2Interrupt):<code 337> (__DefaultInterrupt)
                  0x000120          0x4 LONG 0x913a DEFINED (__AltOC2Interrupt)?<code 337> (__AltOC2Interrupt):DEFINED (__OC2Interrupt)?<code 337> (__OC2Interrupt):<code 337> (__DefaultInterrupt)
                  0x000122          0x4 LONG 0x913a DEFINED (__AltT2Interrupt)?<code 337> (__AltT2Interrupt):DEFINED (__T2Interrupt)?<code 337> (__T2Interrupt):<code 337> (__DefaultInterrupt)
                  0x000124          0x4 LONG 0x913a DEFINED (__AltT3Interrupt)?<code 337> (__AltT3Interrupt):DEFINED (__T3Interrupt)?<code 337> (__T3Interrupt):<code 337> (__DefaultInterrupt)
                  0x000126          0x4 LONG 0x913a DEFINED (__AltSPI1ErrInterrupt)?<code 337> (__AltSPI1ErrInterrupt):DEFINED (__SPI1ErrInterrupt)?<code 337> (__SPI1ErrInterrupt):<code 337> (__DefaultInterrupt)
                  0x000128          0x4 LONG 0x913a DEFINED (__AltSPI1Interrupt)?<code 337> (__AltSPI1Interrupt):DEFINED (__SPI1Interrupt)?<code 337> (__SPI1Interrupt):<code 337> (__DefaultInterrupt)
                  0x00012a          0x4 LONG 0x913a DEFINED (__AltU1RXInterrupt)?<code 337> (__AltU1RXInterrupt):DEFINED (__U1RXInterrupt)?<code 337> (__U1RXInterrupt):<code 337> (__DefaultInterrupt)
                  0x00012c          0x4 LONG 0x913a DEFINED (__AltU1TXInterrupt)?<code 337> (__AltU1TXInterrupt):DEFINED (__U1TXInterrupt)?<code 337> (__U1TXInterrupt):<code 337> (__DefaultInterrupt)
                  0x00012e          0x4 LONG 0x913a DEFINED (__AltADC1Interrupt)?<code 337> (__AltADC1Interrupt):DEFINED (__ADC1Interrupt)?<code 337> (__ADC1Interrupt):<code 337> (__DefaultInterrupt)
                  0x000130          0x4 LONG 0x913a DEFINED (__AltInterrupt14)?<code 337> (__AltInterrupt14):DEFINED (__Interrupt14)?<code 337> (__Interrupt14):<code 337> (__DefaultInterrupt)
                  0x000132          0x4 LONG 0x913a DEFINED (__AltInterrupt15)?<code 337> (__AltInterrupt15):DEFINED (__Interrupt15)?<code 337> (__Interrupt15):<code 337> (__DefaultInterrupt)
                  0x000134          0x4 LONG 0x913a DEFINED (__AltSI2C1Interrupt)?<code 337> (__AltSI2C1Interrupt):DEFINED (__SI2C1Interrupt)?<code 337> (__SI2C1Interrupt):<code 337> (__DefaultInterrupt)
                  0x000136          0x4 LONG 0x913a DEFINED (__AltMI2C1Interrupt)?<code 337> (__AltMI2C1Interrupt):DEFINED (__MI2C1Interrupt)?<code 337> (__MI2C1Interrupt):<code 337> (__DefaultInterrupt)
                  0x000138          0x4 LONG 0x913a DEFINED (__AltCompInterrupt)?<code 337> (__AltCompInterrupt):DEFINED (__CompInterrupt)?<code 337> (__CompInterrupt):<code 337> (__DefaultInterrupt)
                  0x00013a          0x4 LONG 0x913a DEFINED (__AltCNInterrupt)?<code 337> (__AltCNInterrupt):DEFINED (__CNInterrupt)?<code 337> (__CNInterrupt):<code 337> (__DefaultInterrupt)
                  0x00013c          0x4 LONG 0x913a DEFINED (__AltINT1Interrupt)?<code 337> (__AltINT1Interrupt):DEFINED (__INT1Interrupt)?<code 337> (__INT1Interrupt):<code 337> (__DefaultInterrupt)
                  0x00013e          0x4 LONG 0x913a DEFINED (__AltInterrupt21)?<code 337> (__AltInterrupt21):DEFINED (__Interrupt21)?<code 337> (__Interrupt21):<code 337> (__DefaultInterrupt)
                  0x000140          0x4 LONG 0x913a DEFINED (__AltInterrupt22)?<code 337> (__AltInterrupt22):DEFINED (__Interrupt22)?<code 337> (__Interrupt22):<code 337> (__DefaultInterrupt)
                  0x000142          0x4 LONG 0x913a DEFINED (__AltInterrupt23)?<code 337> (__AltInterrupt23):DEFINED (__Interrupt23)?<code 337> (__Interrupt23):<code 337> (__DefaultInterrupt)
                  0x000144          0x4 LONG 0x913a DEFINED (__AltInterrupt24)?<code 337> (__AltInterrupt24):DEFINED (__Interrupt24)?<code 337> (__Interrupt24):<code 337> (__DefaultInterrupt)
                  0x000146          0x4 LONG 0x913a DEFINED (__AltOC3Interrupt)?<code 337> (__AltOC3Interrupt):DEFINED (__OC3Interrupt)?<code 337> (__OC3Interrupt):<code 337> (__DefaultInterrupt)
                  0x000148          0x4 LONG 0x913a DEFINED (__AltOC4Interrupt)?<code 337> (__AltOC4Interrupt):DEFINED (__OC4Interrupt)?<code 337> (__OC4Interrupt):<code 337> (__DefaultInterrupt)
                  0x00014a          0x4 LONG 0x913a DEFINED (__AltT4Interrupt)?<code 337> (__AltT4Interrupt):DEFINED (__T4Interrupt)?<code 337> (__T4Interrupt):<code 337> (__DefaultInterrupt)
                  0x00014c          0x4 LONG 0x913a DEFINED (__AltT5Interrupt)?<code 337> (__AltT5Interrupt):DEFINED (__T5Interrupt)?<code 337> (__T5Interrupt):<code 337> (__DefaultInterrupt)
                  0x00014e          0x4 LONG 0x913a DEFINED (__AltINT2Interrupt)?<code 337> (__AltINT2Interrupt):DEFINED (__INT2Interrupt)?<code 337> (__INT2Interrupt):<code 337> (__DefaultInterrupt)
                  0x000150          0x4 LONG 0x913a DEFINED (__AltU2RXInterrupt)?<code 337> (__AltU2RXInterrupt):DEFINED (__U2RXInterrupt)?<code 337> (__U2RXInterrupt):<code 337> (__DefaultInterrupt)
                  0x000152          0x4 LONG 0x913a DEFINED (__AltU2TXInterrupt)?<code 337> (__AltU2TXInterrupt):DEFINED (__U2TXInterrupt)?<code 337> (__U2TXInterrupt):<code 337> (__DefaultInterrupt)
                  0x000154          0x4 LONG 0x913a DEFINED (__AltSPI2ErrInterrupt)?<code 337> (__AltSPI2ErrInterrupt):DEFINED (__SPI2ErrInterrupt)?<code 337> (__SPI2ErrInterrupt):<code 337> (__DefaultInterrupt)
                  0x000156          0x4 LONG 0x913a DEFINED (__AltSPI2Interrupt)?<code 337> (__AltSPI2Interrupt):DEFINED (__SPI2Interrupt)?<code 337> (__SPI2Interrupt):<code 337> (__DefaultInterrupt)
                  0x000158          0x4 LONG 0x913a DEFINED (__AltInterrupt34)?<code 337> (__AltInterrupt34):DEFINED (__Interrupt34)?<code 337> (__Interrupt34):<code 337> (__DefaultInterrupt)
                  0x00015a          0x4 LONG 0x913a DEFINED (__AltInterrupt35)?<code 337> (__AltInterrupt35):DEFINED (__Interrupt35)?<code 337> (__Interrupt35):<code 337> (__DefaultInterrupt)
                  0x00015c          0x4 LONG 0x913a DEFINED (__AltInterrupt36)?<code 337> (__AltInterrupt36):DEFINED (__Interrupt36)?<code 337> (__Interrupt36):<code 337> (__DefaultInterrupt)
                  0x00015e          0x4 LONG 0x913a DEFINED (__AltIC3Interrupt)?<code 337> (__AltIC3Interrupt):DEFINED (__IC3Interrupt)?<code 337> (__IC3Interrupt):<code 337> (__DefaultInterrupt)
                  0x000160          0x4 LONG 0x913a DEFINED (__AltIC4Interrupt)?<code 337> (__AltIC4Interrupt):DEFINED (__IC4Interrupt)?<code 337> (__IC4Interrupt):<code 337> (__DefaultInterrupt)
                  0x000162          0x4 LONG 0x913a DEFINED (__AltIC5Interrupt)?<code 337> (__AltIC5Interrupt):DEFINED (__IC5Interrupt)?<code 337> (__IC5Interrupt):<code 337> (__DefaultInterrupt)
                  0x000164          0x4 LONG 0x913a DEFINED (__AltInterrupt40)?<code 337> (__AltInterrupt40):DEFINED (__Interrupt40)?<code 337> (__Interrupt40):<code 337> (__DefaultInterrupt)
                  0x000166          0x4 LONG 0x913a DEFINED (__AltOC5Interrupt)?<code 337> (__AltOC5Interrupt):DEFINED (__OC5Interrupt)?<code 337> (__OC5Interrupt):<code 337> (__DefaultInterrupt)
                  0x000168          0x4 LONG 0x913a DEFINED (__AltInterrupt42)?<code 337> (__AltInterrupt42):DEFINED (__Interrupt42)?<code 337> (__Interrupt42):<code 337> (__DefaultInterrupt)
                  0x00016a          0x4 LONG 0x913a DEFINED (__AltInterrupt43)?<code 337> (__AltInterrupt43):DEFINED (__Interrupt43)?<code 337> (__Interrupt43):<code 337> (__DefaultInterrupt)
                  0x00016c          0x4 LONG 0x913a DEFINED (__AltInterrupt44)?<code 337> (__AltInterrupt44):DEFINED (__Interrupt44)?<code 337> (__Interrupt44):<code 337> (__DefaultInterrupt)
                  0x00016e          0x4 LONG 0x913a DEFINED (__AltPMPInterrupt)?<code 337> (__AltPMPInterrupt):DEFINED (__PMPInterrupt)?<code 337> (__PMPInterrupt):<code 337> (__DefaultInterrupt)
                  0x000170          0x4 LONG 0x913a DEFINED (__AltInterrupt46)?<code 337> (__AltInterrupt46):DEFINED (__Interrupt46)?<code 337> (__Interrupt46):<code 337> (__DefaultInterrupt)
                  0x000172          0x4 LONG 0x913a DEFINED (__AltInterrupt47)?<code 337> (__AltInterrupt47):DEFINED (__Interrupt47)?<code 337> (__Interrupt47):<code 337> (__DefaultInterrupt)
                  0x000174          0x4 LONG 0x913a DEFINED (__AltInterrupt48)?<code 337> (__AltInterrupt48):DEFINED (__Interrupt48)?<code 337> (__Interrupt48):<code 337> (__DefaultInterrupt)
                  0x000176          0x4 LONG 0x913a DEFINED (__AltSI2C2Interrupt)?<code 337> (__AltSI2C2Interrupt):DEFINED (__SI2C2Interrupt)?<code 337> (__SI2C2Interrupt):<code 337> (__DefaultInterrupt)
                  0x000178          0x4 LONG 0x913a DEFINED (__AltMI2C2Interrupt)?<code 337> (__AltMI2C2Interrupt):DEFINED (__MI2C2Interrupt)?<code 337> (__MI2C2Interrupt):<code 337> (__DefaultInterrupt)
                  0x00017a          0x4 LONG 0x913a DEFINED (__AltInterrupt51)?<code 337> (__AltInterrupt51):DEFINED (__Interrupt51)?<code 337> (__Interrupt51):<code 337> (__DefaultInterrupt)
                  0x00017c          0x4 LONG 0x913a DEFINED (__AltInterrupt52)?<code 337> (__AltInterrupt52):DEFINED (__Interrupt52)?<code 337> (__Interrupt52):<code 337> (__DefaultInterrupt)
                  0x00017e          0x4 LONG 0x913a DEFINED (__AltInterrupt53)?<code 337> (__AltInterrupt53):DEFINED (__Interrupt53)?<code 337> (__Interrupt53):<code 337> (__DefaultInterrupt)
                  0x000180          0x4 LONG 0x913a DEFINED (__AltInterrupt54)?<code 337> (__AltInterrupt54):DEFINED (__Interrupt54)?<code 337> (__Interrupt54):<code 337> (__DefaultInterrupt)
                  0x000182          0x4 LONG 0x913a DEFINED (__AltInterrupt55)?<code 337> (__AltInterrupt55):DEFINED (__Interrupt55)?<code 337> (__Interrupt55):<code 337> (__DefaultInterrupt)
                  0x000184          0x4 LONG 0x913a DEFINED (__AltInterrupt56)?<code 337> (__AltInterrupt56):DEFINED (__Interrupt56)?<code 337> (__Interrupt56):<code 337> (__DefaultInterrupt)
                  0x000186          0x4 LONG 0x913a DEFINED (__AltInterrupt57)?<code 337> (__AltInterrupt57):DEFINED (__Interrupt57)?<code 337> (__Interrupt57):<code 337> (__DefaultInterrupt)
                  0x000188          0x4 LONG 0x913a DEFINED (__AltInterrupt58)?<code 337> (__AltInterrupt58):DEFINED (__Interrupt58)?<code 337> (__Interrupt58):<code 337> (__DefaultInterrupt)
                  0x00018a          0x4 LONG 0x913a DEFINED (__AltInterrupt59)?<code 337> (__AltInterrupt59):DEFINED (__Interrupt59)?<code 337> (__Interrupt59):<code 337> (__DefaultInterrupt)
                  0x00018c          0x4 LONG 0x913a DEFINED (__AltInterrupt60)?<code 337> (__AltInterrupt60):DEFINED (__Interrupt60)?<code 337> (__Interrupt60):<code 337> (__DefaultInterrupt)
                  0x00018e          0x4 LONG 0x913a DEFINED (__AltInterrupt61)?<code 337> (__AltInterrupt61):DEFINED (__Interrupt61)?<code 337> (__Interrupt61):<code 337> (__DefaultInterrupt)
                  0x000190          0x4 LONG 0x913a DEFINED (__AltRTCCInterrupt)?<code 337> (__AltRTCCInterrupt):DEFINED (__RTCCInterrupt)?<code 337> (__RTCCInterrupt):<code 337> (__DefaultInterrupt)
                  0x000192          0x4 LONG 0x913a DEFINED (__AltInterrupt63)?<code 337> (__AltInterrupt63):DEFINED (__Interrupt63)?<code 337> (__Interrupt63):<code 337> (__DefaultInterrupt)
                  0x000194          0x4 LONG 0x913a DEFINED (__AltInterrupt64)?<code 337> (__AltInterrupt64):DEFINED (__Interrupt64)?<code 337> (__Interrupt64):<code 337> (__DefaultInterrupt)
                  0x000196          0x4 LONG 0x913a DEFINED (__AltU1ErrInterrupt)?<code 337> (__AltU1ErrInterrupt):DEFINED (__U1ErrInterrupt)?<code 337> (__U1ErrInterrupt):<code 337> (__DefaultInterrupt)
                  0x000198          0x4 LONG 0x913a DEFINED (__AltU2ErrInterrupt)?<code 337> (__AltU2ErrInterrupt):DEFINED (__U2ErrInterrupt)?<code 337> (__U2ErrInterrupt):<code 337> (__DefaultInterrupt)
                  0x00019a          0x4 LONG 0x913a DEFINED (__AltCRCInterrupt)?<code 337> (__AltCRCInterrupt):DEFINED (__CRCInterrupt)?<code 337> (__CRCInterrupt):<code 337> (__DefaultInterrupt)
                  0x00019c          0x4 LONG 0x913a DEFINED (__AltInterrupt68)?<code 337> (__AltInterrupt68):DEFINED (__Interrupt68)?<code 337> (__Interrupt68):<code 337> (__DefaultInterrupt)
                  0x00019e          0x4 LONG 0x913a DEFINED (__AltInterrupt69)?<code 337> (__AltInterrupt69):DEFINED (__Interrupt69)?<code 337> (__Interrupt69):<code 337> (__DefaultInterrupt)
                  0x0001a0          0x4 LONG 0x913a DEFINED (__AltInterrupt70)?<code 337> (__AltInterrupt70):DEFINED (__Interrupt70)?<code 337> (__Interrupt70):<code 337> (__DefaultInterrupt)
                  0x0001a2          0x4 LONG 0x913a DEFINED (__AltInterrupt71)?<code 337> (__AltInterrupt71):DEFINED (__Interrupt71)?<code 337> (__Interrupt71):<code 337> (__DefaultInterrupt)
                  0x0001a4          0x4 LONG 0x913a DEFINED (__AltLVDInterrupt)?<code 337> (__AltLVDInterrupt):DEFINED (__LVDInterrupt)?<code 337> (__LVDInterrupt):<code 337> (__DefaultInterrupt)
                  0x0001a6          0x4 LONG 0x913a DEFINED (__AltInterrupt73)?<code 337> (__AltInterrupt73):DEFINED (__Interrupt73)?<code 337> (__Interrupt73):<code 337> (__DefaultInterrupt)
                  0x0001a8          0x4 LONG 0x913a DEFINED (__AltInterrupt74)?<code 337> (__AltInterrupt74):DEFINED (__Interrupt74)?<code 337> (__Interrupt74):<code 337> (__DefaultInterrupt)
                  0x0001aa          0x4 LONG 0x913a DEFINED (__AltInterrupt75)?<code 337> (__AltInterrupt75):DEFINED (__Interrupt75)?<code 337> (__Interrupt75):<code 337> (__DefaultInterrupt)
                  0x0001ac          0x4 LONG 0x913a DEFINED (__AltInterrupt76)?<code 337> (__AltInterrupt76):DEFINED (__Interrupt76)?<code 337> (__Interrupt76):<code 337> (__DefaultInterrupt)
                  0x0001ae          0x4 LONG 0x913a DEFINED (__AltInterrupt77)?<code 337> (__AltInterrupt77):DEFINED (__Interrupt77)?<code 337> (__Interrupt77):<code 337> (__DefaultInterrupt)
                  0x0001b0          0x4 LONG 0x913a DEFINED (__AltInterrupt78)?<code 337> (__AltInterrupt78):DEFINED (__Interrupt78)?<code 337> (__Interrupt78):<code 337> (__DefaultInterrupt)
                  0x0001b2          0x4 LONG 0x913a DEFINED (__AltInterrupt79)?<code 337> (__AltInterrupt79):DEFINED (__Interrupt79)?<code 337> (__Interrupt79):<code 337> (__DefaultInterrupt)
                  0x0001b4          0x4 LONG 0x913a DEFINED (__AltInterrupt80)?<code 337> (__AltInterrupt80):DEFINED (__Interrupt80)?<code 337> (__Interrupt80):<code 337> (__DefaultInterrupt)
                  0x0001b6          0x4 LONG 0x913a DEFINED (__AltInterrupt81)?<code 337> (__AltInterrupt81):DEFINED (__Interrupt81)?<code 337> (__Interrupt81):<code 337> (__DefaultInterrupt)
                  0x0001b8          0x4 LONG 0x913a DEFINED (__AltInterrupt82)?<code 337> (__AltInterrupt82):DEFINED (__Interrupt82)?<code 337> (__Interrupt82):<code 337> (__DefaultInterrupt)
                  0x0001ba          0x4 LONG 0x913a DEFINED (__AltInterrupt83)?<code 337> (__AltInterrupt83):DEFINED (__Interrupt83)?<code 337> (__Interrupt83):<code 337> (__DefaultInterrupt)
                  0x0001bc          0x4 LONG 0x913a DEFINED (__AltInterrupt84)?<code 337> (__AltInterrupt84):DEFINED (__Interrupt84)?<code 337> (__Interrupt84):<code 337> (__DefaultInterrupt)
                  0x0001be          0x4 LONG 0x913a DEFINED (__AltInterrupt85)?<code 337> (__AltInterrupt85):DEFINED (__Interrupt85)?<code 337> (__Interrupt85):<code 337> (__DefaultInterrupt)
                  0x0001c0          0x4 LONG 0x913a DEFINED (__AltInterrupt86)?<code 337> (__AltInterrupt86):DEFINED (__Interrupt86)?<code 337> (__Interrupt86):<code 337> (__DefaultInterrupt)
                  0x0001c2          0x4 LONG 0x913a DEFINED (__AltInterrupt87)?<code 337> (__AltInterrupt87):DEFINED (__Interrupt87)?<code 337> (__Interrupt87):<code 337> (__DefaultInterrupt)
                  0x0001c4          0x4 LONG 0x913a DEFINED (__AltInterrupt88)?<code 337> (__AltInterrupt88):DEFINED (__Interrupt88)?<code 337> (__Interrupt88):<code 337> (__DefaultInterrupt)
                  0x0001c6          0x4 LONG 0x913a DEFINED (__AltInterrupt89)?<code 337> (__AltInterrupt89):DEFINED (__Interrupt89)?<code 337> (__Interrupt89):<code 337> (__DefaultInterrupt)
                  0x0001c8          0x4 LONG 0x913a DEFINED (__AltInterrupt90)?<code 337> (__AltInterrupt90):DEFINED (__Interrupt90)?<code 337> (__Interrupt90):<code 337> (__DefaultInterrupt)
                  0x0001ca          0x4 LONG 0x913a DEFINED (__AltInterrupt91)?<code 337> (__AltInterrupt91):DEFINED (__Interrupt91)?<code 337> (__Interrupt91):<code 337> (__DefaultInterrupt)
                  0x0001cc          0x4 LONG 0x913a DEFINED (__AltInterrupt92)?<code 337> (__AltInterrupt92):DEFINED (__Interrupt92)?<code 337> (__Interrupt92):<code 337> (__DefaultInterrupt)
                  0x0001ce          0x4 LONG 0x913a DEFINED (__AltInterrupt93)?<code 337> (__AltInterrupt93):DEFINED (__Interrupt93)?<code 337> (__Interrupt93):<code 337> (__DefaultInterrupt)
                  0x0001d0          0x4 LONG 0x913a DEFINED (__AltInterrupt94)?<code 337> (__AltInterrupt94):DEFINED (__Interrupt94)?<code 337> (__Interrupt94):<code 337> (__DefaultInterrupt)
                  0x0001d2          0x4 LONG 0x913a DEFINED (__AltInterrupt95)?<code 337> (__AltInterrupt95):DEFINED (__Interrupt95)?<code 337> (__Interrupt95):<code 337> (__DefaultInterrupt)
                  0x0001d4          0x4 LONG 0x913a DEFINED (__AltInterrupt96)?<code 337> (__AltInterrupt96):DEFINED (__Interrupt96)?<code 337> (__Interrupt96):<code 337> (__DefaultInterrupt)
                  0x0001d6          0x4 LONG 0x913a DEFINED (__AltInterrupt97)?<code 337> (__AltInterrupt97):DEFINED (__Interrupt97)?<code 337> (__Interrupt97):<code 337> (__DefaultInterrupt)
                  0x0001d8          0x4 LONG 0x913a DEFINED (__AltInterrupt98)?<code 337> (__AltInterrupt98):DEFINED (__Interrupt98)?<code 337> (__Interrupt98):<code 337> (__DefaultInterrupt)
                  0x0001da          0x4 LONG 0x913a DEFINED (__AltInterrupt99)?<code 337> (__AltInterrupt99):DEFINED (__Interrupt99)?<code 337> (__Interrupt99):<code 337> (__DefaultInterrupt)
                  0x0001dc          0x4 LONG 0x913a DEFINED (__AltInterrupt100)?<code 337> (__AltInterrupt100):DEFINED (__Interrupt100)?<code 337> (__Interrupt100):<code 337> (__DefaultInterrupt)
                  0x0001de          0x4 LONG 0x913a DEFINED (__AltInterrupt101)?<code 337> (__AltInterrupt101):DEFINED (__Interrupt101)?<code 337> (__Interrupt101):<code 337> (__DefaultInterrupt)
                  0x0001e0          0x4 LONG 0x913a DEFINED (__AltInterrupt102)?<code 337> (__AltInterrupt102):DEFINED (__Interrupt102)?<code 337> (__Interrupt102):<code 337> (__DefaultInterrupt)
                  0x0001e2          0x4 LONG 0x913a DEFINED (__AltInterrupt103)?<code 337> (__AltInterrupt103):DEFINED (__Interrupt103)?<code 337> (__Interrupt103):<code 337> (__DefaultInterrupt)
                  0x0001e4          0x4 LONG 0x913a DEFINED (__AltInterrupt104)?<code 337> (__AltInterrupt104):DEFINED (__Interrupt104)?<code 337> (__Interrupt104):<code 337> (__DefaultInterrupt)
                  0x0001e6          0x4 LONG 0x913a DEFINED (__AltInterrupt105)?<code 337> (__AltInterrupt105):DEFINED (__Interrupt105)?<code 337> (__Interrupt105):<code 337> (__DefaultInterrupt)
                  0x0001e8          0x4 LONG 0x913a DEFINED (__AltInterrupt106)?<code 337> (__AltInterrupt106):DEFINED (__Interrupt106)?<code 337> (__Interrupt106):<code 337> (__DefaultInterrupt)
                  0x0001ea          0x4 LONG 0x913a DEFINED (__AltInterrupt107)?<code 337> (__AltInterrupt107):DEFINED (__Interrupt107)?<code 337> (__Interrupt107):<code 337> (__DefaultInterrupt)
                  0x0001ec          0x4 LONG 0x913a DEFINED (__AltInterrupt108)?<code 337> (__AltInterrupt108):DEFINED (__Interrupt108)?<code 337> (__Interrupt108):<code 337> (__DefaultInterrupt)
                  0x0001ee          0x4 LONG 0x913a DEFINED (__AltInterrupt109)?<code 337> (__AltInterrupt109):DEFINED (__Interrupt109)?<code 337> (__Interrupt109):<code 337> (__DefaultInterrupt)
                  0x0001f0          0x4 LONG 0x913a DEFINED (__AltInterrupt110)?<code 337> (__AltInterrupt110):DEFINED (__Interrupt110)?<code 337> (__Interrupt110):<code 337> (__DefaultInterrupt)
                  0x0001f2          0x4 LONG 0x913a DEFINED (__AltInterrupt111)?<code 337> (__AltInterrupt111):DEFINED (__Interrupt111)?<code 337> (__Interrupt111):<code 337> (__DefaultInterrupt)
                  0x0001f4          0x4 LONG 0x913a DEFINED (__AltInterrupt112)?<code 337> (__AltInterrupt112):DEFINED (__Interrupt112)?<code 337> (__Interrupt112):<code 337> (__DefaultInterrupt)
                  0x0001f6          0x4 LONG 0x913a DEFINED (__AltInterrupt113)?<code 337> (__AltInterrupt113):DEFINED (__Interrupt113)?<code 337> (__Interrupt113):<code 337> (__DefaultInterrupt)
                  0x0001f8          0x4 LONG 0x913a DEFINED (__AltInterrupt114)?<code 337> (__AltInterrupt114):DEFINED (__Interrupt114)?<code 337> (__Interrupt114):<code 337> (__DefaultInterrupt)
                  0x0001fa          0x4 LONG 0x913a DEFINED (__AltInterrupt115)?<code 337> (__AltInterrupt115):DEFINED (__Interrupt115)?<code 337> (__Interrupt115):<code 337> (__DefaultInterrupt)
                  0x0001fc          0x4 LONG 0x913a DEFINED (__AltInterrupt116)?<code 337> (__AltInterrupt116):DEFINED (__Interrupt116)?<code 337> (__Interrupt116):<code 337> (__DefaultInterrupt)
                  0x0001fe          0x4 LONG 0x913a DEFINED (__AltInterrupt117)?<code 337> (__AltInterrupt117):DEFINED (__Interrupt117)?<code 337> (__Interrupt117):<code 337> (__DefaultInterrupt)
                    0x0000                  WREG0 = 0x0
                    0x0000                  _WREG0 = 0x0
                    0x0002                  WREG1 = 0x2
                    0x0002                  _WREG1 = 0x2
                    0x0004                  WREG2 = 0x4
                    0x0004                  _WREG2 = 0x4
                    0x0006                  WREG3 = 0x6
                    0x0006                  _WREG3 = 0x6
                    0x0008                  WREG4 = 0x8
                    0x0008                  _WREG4 = 0x8
                    0x000a                  WREG5 = 0xa
                    0x000a                  _WREG5 = 0xa
                    0x000c                  WREG6 = 0xc
                    0x000c                  _WREG6 = 0xc
                    0x000e                  WREG7 = 0xe
                    0x000e                  _WREG7 = 0xe
                    0x0010                  WREG8 = 0x10
                    0x0010                  _WREG8 = 0x10
                    0x0012                  WREG9 = 0x12
                    0x0012                  _WREG9 = 0x12
                    0x0014                  WREG10 = 0x14
                    0x0014                  _WREG10 = 0x14
                    0x0016                  WREG11 = 0x16
                    0x0016                  _WREG11 = 0x16
                    0x0018                  WREG12 = 0x18
                    0x0018                  _WREG12 = 0x18
                    0x001a                  WREG13 = 0x1a
                    0x001a                  _WREG13 = 0x1a
                    0x001c                  WREG14 = 0x1c
                    0x001c                  _WREG14 = 0x1c
                    0x001e                  WREG15 = 0x1e
                    0x001e                  _WREG15 = 0x1e
                    0x0020                  SPLIM = 0x20
                    0x0020                  _SPLIM = 0x20
                    0x002e                  PCL = 0x2e
                    0x002e                  _PCL = 0x2e
                    0x0030                  PCH = 0x30
                    0x0030                  _PCH = 0x30
                    0x0032                  TBLPAG = 0x32
                    0x0032                  _TBLPAG = 0x32
                    0x0034                  PSVPAG = 0x34
                    0x0034                  _PSVPAG = 0x34
                    0x0036                  RCOUNT = 0x36
                    0x0036                  _RCOUNT = 0x36
                    0x0042                  SR = 0x42
                    0x0042                  _SR = 0x42
                    0x0042                  _SRbits = 0x42
                    0x0044                  CORCON = 0x44
                    0x0044                  _CORCON = 0x44
                    0x0044                  _CORCONbits = 0x44
                    0x0052                  DISICNT = 0x52
                    0x0052                  _DISICNT = 0x52
                    0x0060                  CNEN1 = 0x60
                    0x0060                  _CNEN1 = 0x60
                    0x0060                  _CNEN1bits = 0x60
                    0x0062                  CNEN2 = 0x62
                    0x0062                  _CNEN2 = 0x62
                    0x0062                  _CNEN2bits = 0x62
                    0x0068                  CNPU1 = 0x68
                    0x0068                  _CNPU1 = 0x68
                    0x0068                  _CNPU1bits = 0x68
                    0x006a                  CNPU2 = 0x6a
                    0x006a                  _CNPU2 = 0x6a
                    0x006a                  _CNPU2bits = 0x6a
                    0x0080                  INTCON1 = 0x80
                    0x0080                  _INTCON1 = 0x80
                    0x0080                  _INTCON1bits = 0x80
                    0x0082                  INTCON2 = 0x82
                    0x0082                  _INTCON2 = 0x82
                    0x0082                  _INTCON2bits = 0x82
                    0x0084                  IFS0 = 0x84
                    0x0084                  _IFS0 = 0x84
                    0x0084                  _IFS0bits = 0x84
                    0x0086                  IFS1 = 0x86
                    0x0086                  _IFS1 = 0x86
                    0x0086                  _IFS1bits = 0x86
                    0x0088                  IFS2 = 0x88
                    0x0088                  _IFS2 = 0x88
                    0x0088                  _IFS2bits = 0x88
                    0x008a                  IFS3 = 0x8a
                    0x008a                  _IFS3 = 0x8a
                    0x008a                  _IFS3bits = 0x8a
                    0x008c                  IFS4 = 0x8c
                    0x008c                  _IFS4 = 0x8c
                    0x008c                  _IFS4bits = 0x8c
                    0x0094                  IEC0 = 0x94
                    0x0094                  _IEC0 = 0x94
                    0x0094                  _IEC0bits = 0x94
                    0x0096                  IEC1 = 0x96
                    0x0096                  _IEC1 = 0x96
                    0x0096                  _IEC1bits = 0x96
                    0x0098                  IEC2 = 0x98
                    0x0098                  _IEC2 = 0x98
                    0x0098                  _IEC2bits = 0x98
                    0x009a                  IEC3 = 0x9a
                    0x009a                  _IEC3 = 0x9a
                    0x009a                  _IEC3bits = 0x9a
                    0x009c                  IEC4 = 0x9c
                    0x009c                  _IEC4 = 0x9c
                    0x009c                  _IEC4bits = 0x9c
                    0x00a4                  IPC0 = 0xa4
                    0x00a4                  _IPC0 = 0xa4
                    0x00a4                  _IPC0bits = 0xa4
                    0x00a6                  IPC1 = 0xa6
                    0x00a6                  _IPC1 = 0xa6
                    0x00a6                  _IPC1bits = 0xa6
                    0x00a8                  IPC2 = 0xa8
                    0x00a8                  _IPC2 = 0xa8
                    0x00a8                  _IPC2bits = 0xa8
                    0x00aa                  IPC3 = 0xaa
                    0x00aa                  _IPC3 = 0xaa
                    0x00aa                  _IPC3bits = 0xaa
                    0x00ac                  IPC4 = 0xac
                    0x00ac                  _IPC4 = 0xac
                    0x00ac                  _IPC4bits = 0xac
                    0x00ae                  IPC5 = 0xae
                    0x00ae                  _IPC5 = 0xae
                    0x00ae                  _IPC5bits = 0xae
                    0x00b0                  IPC6 = 0xb0
                    0x00b0                  _IPC6 = 0xb0
                    0x00b0                  _IPC6bits = 0xb0
                    0x00b2                  IPC7 = 0xb2
                    0x00b2                  _IPC7 = 0xb2
                    0x00b2                  _IPC7bits = 0xb2
                    0x00b4                  IPC8 = 0xb4
                    0x00b4                  _IPC8 = 0xb4
                    0x00b4                  _IPC8bits = 0xb4
                    0x00b6                  IPC9 = 0xb6
                    0x00b6                  _IPC9 = 0xb6
                    0x00b6                  _IPC9bits = 0xb6
                    0x00b8                  IPC10 = 0xb8
                    0x00b8                  _IPC10 = 0xb8
                    0x00b8                  _IPC10bits = 0xb8
                    0x00ba                  IPC11 = 0xba
                    0x00ba                  _IPC11 = 0xba
                    0x00ba                  _IPC11bits = 0xba
                    0x00bc                  IPC12 = 0xbc
                    0x00bc                  _IPC12 = 0xbc
                    0x00bc                  _IPC12bits = 0xbc
                    0x00c2                  IPC15 = 0xc2
                    0x00c2                  _IPC15 = 0xc2
                    0x00c2                  _IPC15bits = 0xc2
                    0x00c4                  IPC16 = 0xc4
                    0x00c4                  _IPC16 = 0xc4
                    0x00c4                  _IPC16bits = 0xc4
                    0x00c8                  IPC18 = 0xc8
                    0x00c8                  _IPC18 = 0xc8
                    0x00c8                  _IPC18bits = 0xc8
                    0x0100                  TMR1 = 0x100
                    0x0100                  _TMR1 = 0x100
                    0x0102                  PR1 = 0x102
                    0x0102                  _PR1 = 0x102
                    0x0104                  T1CON = 0x104
                    0x0104                  _T1CON = 0x104
                    0x0104                  _T1CONbits = 0x104
                    0x0106                  TMR2 = 0x106
                    0x0106                  _TMR2 = 0x106
                    0x0108                  TMR3HLD = 0x108
                    0x0108                  _TMR3HLD = 0x108
                    0x010a                  TMR3 = 0x10a
                    0x010a                  _TMR3 = 0x10a
                    0x010c                  PR2 = 0x10c
                    0x010c                  _PR2 = 0x10c
                    0x010e                  PR3 = 0x10e
                    0x010e                  _PR3 = 0x10e
                    0x0110                  T2CON = 0x110
                    0x0110                  _T2CON = 0x110
                    0x0110                  _T2CONbits = 0x110
                    0x0112                  T3CON = 0x112
                    0x0112                  _T3CON = 0x112
                    0x0112                  _T3CONbits = 0x112
                    0x0114                  TMR4 = 0x114
                    0x0114                  _TMR4 = 0x114
                    0x0116                  TMR5HLD = 0x116
                    0x0116                  _TMR5HLD = 0x116
                    0x0118                  TMR5 = 0x118
                    0x0118                  _TMR5 = 0x118
                    0x011a                  PR4 = 0x11a
                    0x011a                  _PR4 = 0x11a
                    0x011c                  PR5 = 0x11c
                    0x011c                  _PR5 = 0x11c
                    0x011e                  T4CON = 0x11e
                    0x011e                  _T4CON = 0x11e
                    0x011e                  _T4CONbits = 0x11e
                    0x0120                  T5CON = 0x120
                    0x0120                  _T5CON = 0x120
                    0x0120                  _T5CONbits = 0x120
                    0x0140                  IC1BUF = 0x140
                    0x0140                  _IC1BUF = 0x140
                    0x0142                  IC1CON = 0x142
                    0x0142                  _IC1CON = 0x142
                    0x0142                  _IC1CONbits = 0x142
                    0x0144                  IC2BUF = 0x144
                    0x0144                  _IC2BUF = 0x144
                    0x0146                  IC2CON = 0x146
                    0x0146                  _IC2CON = 0x146
                    0x0146                  _IC2CONbits = 0x146
                    0x0148                  IC3BUF = 0x148
                    0x0148                  _IC3BUF = 0x148
                    0x014a                  IC3CON = 0x14a
                    0x014a                  _IC3CON = 0x14a
                    0x014a                  _IC3CONbits = 0x14a
                    0x014c                  IC4BUF = 0x14c
                    0x014c                  _IC4BUF = 0x14c
                    0x014e                  IC4CON = 0x14e
                    0x014e                  _IC4CON = 0x14e
                    0x014e                  _IC4CONbits = 0x14e
                    0x0150                  IC5BUF = 0x150
                    0x0150                  _IC5BUF = 0x150
                    0x0152                  IC5CON = 0x152
                    0x0152                  _IC5CON = 0x152
                    0x0152                  _IC5CONbits = 0x152
                    0x0180                  OC1RS = 0x180
                    0x0180                  _OC1RS = 0x180
                    0x0182                  OC1R = 0x182
                    0x0182                  _OC1R = 0x182
                    0x0184                  OC1CON = 0x184
                    0x0184                  _OC1CON = 0x184
                    0x0184                  _OC1CONbits = 0x184
                    0x0186                  OC2RS = 0x186
                    0x0186                  _OC2RS = 0x186
                    0x0188                  OC2R = 0x188
                    0x0188                  _OC2R = 0x188
                    0x018a                  OC2CON = 0x18a
                    0x018a                  _OC2CON = 0x18a
                    0x018a                  _OC2CONbits = 0x18a
                    0x018c                  OC3RS = 0x18c
                    0x018c                  _OC3RS = 0x18c
                    0x018e                  OC3R = 0x18e
                    0x018e                  _OC3R = 0x18e
                    0x0190                  OC3CON = 0x190
                    0x0190                  _OC3CON = 0x190
                    0x0190                  _OC3CONbits = 0x190
                    0x0192                  OC4RS = 0x192
                    0x0192                  _OC4RS = 0x192
                    0x0194                  OC4R = 0x194
                    0x0194                  _OC4R = 0x194
                    0x0196                  OC4CON = 0x196
                    0x0196                  _OC4CON = 0x196
                    0x0196                  _OC4CONbits = 0x196
                    0x0198                  OC5RS = 0x198
                    0x0198                  _OC5RS = 0x198
                    0x019a                  OC5R = 0x19a
                    0x019a                  _OC5R = 0x19a
                    0x019c                  OC5CON = 0x19c
                    0x019c                  _OC5CON = 0x19c
                    0x019c                  _OC5CONbits = 0x19c
                    0x0200                  I2C1RCV = 0x200
                    0x0200                  _I2C1RCV = 0x200
                    0x0202                  I2C1TRN = 0x202
                    0x0202                  _I2C1TRN = 0x202
                    0x0204                  I2C1BRG = 0x204
                    0x0204                  _I2C1BRG = 0x204
                    0x0206                  I2C1CON = 0x206
                    0x0206                  _I2C1CON = 0x206
                    0x0206                  _I2C1CONbits = 0x206
                    0x0208                  I2C1STAT = 0x208
                    0x0208                  _I2C1STAT = 0x208
                    0x0208                  _I2C1STATbits = 0x208
                    0x020a                  I2C1ADD = 0x20a
                    0x020a                  _I2C1ADD = 0x20a
                    0x020c                  I2C1MSK = 0x20c
                    0x020c                  _I2C1MSK = 0x20c
                    0x0210                  I2C2RCV = 0x210
                    0x0210                  _I2C2RCV = 0x210
                    0x0212                  I2C2TRN = 0x212
                    0x0212                  _I2C2TRN = 0x212
                    0x0214                  I2C2BRG = 0x214
                    0x0214                  _I2C2BRG = 0x214
                    0x0216                  I2C2CON = 0x216
                    0x0216                  _I2C2CON = 0x216
                    0x0216                  _I2C2CONbits = 0x216
                    0x0218                  I2C2STAT = 0x218
                    0x0218                  _I2C2STAT = 0x218
                    0x0218                  _I2C2STATbits = 0x218
                    0x021a                  I2C2ADD = 0x21a
                    0x021a                  _I2C2ADD = 0x21a
                    0x021c                  I2C2MSK = 0x21c
                    0x021c                  _I2C2MSK = 0x21c
                    0x0220                  U1MODE = 0x220
                    0x0220                  _U1MODE = 0x220
                    0x0220                  _U1MODEbits = 0x220
                    0x0222                  U1STA = 0x222
                    0x0222                  _U1STA = 0x222
                    0x0222                  _U1STAbits = 0x222
                    0x0224                  U1TXREG = 0x224
                    0x0224                  _U1TXREG = 0x224
                    0x0226                  U1RXREG = 0x226
                    0x0226                  _U1RXREG = 0x226
                    0x0228                  U1BRG = 0x228
                    0x0228                  _U1BRG = 0x228
                    0x0230                  U2MODE = 0x230
                    0x0230                  _U2MODE = 0x230
                    0x0230                  _U2MODEbits = 0x230
                    0x0232                  U2STA = 0x232
                    0x0232                  _U2STA = 0x232
                    0x0232                  _U2STAbits = 0x232
                    0x0234                  U2TXREG = 0x234
                    0x0234                  _U2TXREG = 0x234
                    0x0236                  U2RXREG = 0x236
                    0x0236                  _U2RXREG = 0x236
                    0x0238                  U2BRG = 0x238
                    0x0238                  _U2BRG = 0x238
                    0x0240                  SPI1STAT = 0x240
                    0x0240                  _SPI1STAT = 0x240
                    0x0240                  _SPI1STATbits = 0x240
                    0x0242                  SPI1CON1 = 0x242
                    0x0242                  _SPI1CON1 = 0x242
                    0x0242                  _SPI1CON1bits = 0x242
                    0x0244                  SPI1CON2 = 0x244
                    0x0244                  _SPI1CON2 = 0x244
                    0x0244                  _SPI1CON2bits = 0x244
                    0x0248                  SPI1BUF = 0x248
                    0x0248                  _SPI1BUF = 0x248
                    0x0260                  SPI2STAT = 0x260
                    0x0260                  _SPI2STAT = 0x260
                    0x0260                  _SPI2STATbits = 0x260
                    0x0262                  SPI2CON1 = 0x262
                    0x0262                  _SPI2CON1 = 0x262
                    0x0262                  _SPI2CON1bits = 0x262
                    0x0264                  SPI2CON2 = 0x264
                    0x0264                  _SPI2CON2 = 0x264
                    0x0264                  _SPI2CON2bits = 0x264
                    0x0268                  SPI2BUF = 0x268
                    0x0268                  _SPI2BUF = 0x268
                    0x02c0                  TRISA = 0x2c0
                    0x02c0                  _TRISA = 0x2c0
                    0x02c0                  _TRISAbits = 0x2c0
                    0x02c2                  PORTA = 0x2c2
                    0x02c2                  _PORTA = 0x2c2
                    0x02c2                  _PORTAbits = 0x2c2
                    0x02c4                  LATA = 0x2c4
                    0x02c4                  _LATA = 0x2c4
                    0x02c4                  _LATAbits = 0x2c4
                    0x02c6                  ODCA = 0x2c6
                    0x02c6                  _ODCA = 0x2c6
                    0x02c6                  _ODCAbits = 0x2c6
                    0x02c8                  TRISB = 0x2c8
                    0x02c8                  _TRISB = 0x2c8
                    0x02c8                  _TRISBbits = 0x2c8
                    0x02ca                  PORTB = 0x2ca
                    0x02ca                  _PORTB = 0x2ca
                    0x02ca                  _PORTBbits = 0x2ca
                    0x02cc                  LATB = 0x2cc
                    0x02cc                  _LATB = 0x2cc
                    0x02cc                  _LATBbits = 0x2cc
                    0x02ce                  ODCB = 0x2ce
                    0x02ce                  _ODCB = 0x2ce
                    0x02ce                  _ODCBbits = 0x2ce
                    0x02d0                  TRISC = 0x2d0
                    0x02d0                  _TRISC = 0x2d0
                    0x02d0                  _TRISCbits = 0x2d0
                    0x02d2                  PORTC = 0x2d2
                    0x02d2                  _PORTC = 0x2d2
                    0x02d2                  _PORTCbits = 0x2d2
                    0x02d4                  LATC = 0x2d4
                    0x02d4                  _LATC = 0x2d4
                    0x02d4                  _LATCbits = 0x2d4
                    0x02d6                  ODCC = 0x2d6
                    0x02d6                  _ODCC = 0x2d6
                    0x02d6                  _ODCCbits = 0x2d6
                    0x02fc                  PADCFG1 = 0x2fc
                    0x02fc                  _PADCFG1 = 0x2fc
                    0x02fc                  _PADCFG1bits = 0x2fc
                    0x0300                  ADC1BUF0 = 0x300
                    0x0300                  _ADC1BUF0 = 0x300
                    0x0302                  ADC1BUF1 = 0x302
                    0x0302                  _ADC1BUF1 = 0x302
                    0x0304                  ADC1BUF2 = 0x304
                    0x0304                  _ADC1BUF2 = 0x304
                    0x0306                  ADC1BUF3 = 0x306
                    0x0306                  _ADC1BUF3 = 0x306
                    0x0308                  ADC1BUF4 = 0x308
                    0x0308                  _ADC1BUF4 = 0x308
                    0x030a                  ADC1BUF5 = 0x30a
                    0x030a                  _ADC1BUF5 = 0x30a
                    0x030c                  ADC1BUF6 = 0x30c
                    0x030c                  _ADC1BUF6 = 0x30c
                    0x030e                  ADC1BUF7 = 0x30e
                    0x030e                  _ADC1BUF7 = 0x30e
                    0x0310                  ADC1BUF8 = 0x310
                    0x0310                  _ADC1BUF8 = 0x310
                    0x0312                  ADC1BUF9 = 0x312
                    0x0312                  _ADC1BUF9 = 0x312
                    0x0314                  ADC1BUFA = 0x314
                    0x0314                  _ADC1BUFA = 0x314
                    0x0316                  ADC1BUFB = 0x316
                    0x0316                  _ADC1BUFB = 0x316
                    0x0318                  ADC1BUFC = 0x318
                    0x0318                  _ADC1BUFC = 0x318
                    0x031a                  ADC1BUFD = 0x31a
                    0x031a                  _ADC1BUFD = 0x31a
                    0x031c                  ADC1BUFE = 0x31c
                    0x031c                  _ADC1BUFE = 0x31c
                    0x031e                  ADC1BUFF = 0x31e
                    0x031e                  _ADC1BUFF = 0x31e
                    0x0320                  AD1CON1 = 0x320
                    0x0320                  _AD1CON1 = 0x320
                    0x0320                  _AD1CON1bits = 0x320
                    0x0322                  AD1CON2 = 0x322
                    0x0322                  _AD1CON2 = 0x322
                    0x0322                  _AD1CON2bits = 0x322
                    0x0324                  AD1CON3 = 0x324
                    0x0324                  _AD1CON3 = 0x324
                    0x0324                  _AD1CON3bits = 0x324
                    0x0328                  AD1CHS = 0x328
                    0x0328                  _AD1CHS = 0x328
                    0x0328                  _AD1CHSbits = 0x328
                    0x032c                  AD1PCFG = 0x32c
                    0x032c                  _AD1PCFG = 0x32c
                    0x032c                  _AD1PCFGbits = 0x32c
                    0x0330                  AD1CSSL = 0x330
                    0x0330                  _AD1CSSL = 0x330
                    0x0330                  _AD1CSSLbits = 0x330
                    0x0600                  PMCON = 0x600
                    0x0600                  _PMCON = 0x600
                    0x0600                  _PMCONbits = 0x600
                    0x0602                  PMMODE = 0x602
                    0x0602                  _PMMODE = 0x602
                    0x0602                  _PMMODEbits = 0x602
                    0x0604                  PMADDR = 0x604
                    0x0604                  _PMADDR = 0x604
                    0x0604                  _PMADDRbits = 0x604
                    0x0604                  PMDOUT1 = 0x604
                    0x0604                  _PMDOUT1 = 0x604
                    0x0606                  PMDOUT2 = 0x606
                    0x0606                  _PMDOUT2 = 0x606
                    0x0608                  PMDIN1 = 0x608
                    0x0608                  _PMDIN1 = 0x608
                    0x060a                  PMDIN2 = 0x60a
                    0x060a                  _PMDIN2 = 0x60a
                    0x060c                  PMAEN = 0x60c
                    0x060c                  _PMAEN = 0x60c
                    0x060c                  _PMAENbits = 0x60c
                    0x060e                  PMSTAT = 0x60e
                    0x060e                  _PMSTAT = 0x60e
                    0x060e                  _PMSTATbits = 0x60e
                    0x0620                  ALRMVAL = 0x620
                    0x0620                  _ALRMVAL = 0x620
                    0x0622                  ALCFGRPT = 0x622
                    0x0622                  _ALCFGRPT = 0x622
                    0x0622                  _ALCFGRPTbits = 0x622
                    0x0624                  RTCVAL = 0x624
                    0x0624                  _RTCVAL = 0x624
                    0x0626                  RCFGCAL = 0x626
                    0x0626                  _RCFGCAL = 0x626
                    0x0626                  _RCFGCALbits = 0x626
                    0x0630                  CMCON = 0x630
                    0x0630                  _CMCON = 0x630
                    0x0630                  _CMCONbits = 0x630
                    0x0632                  CVRCON = 0x632
                    0x0632                  _CVRCON = 0x632
                    0x0632                  _CVRCONbits = 0x632
                    0x0640                  CRCCON = 0x640
                    0x0640                  _CRCCON = 0x640
                    0x0640                  _CRCCONbits = 0x640
                    0x0642                  CRCXOR = 0x642
                    0x0642                  _CRCXOR = 0x642
                    0x0642                  _CRCXORbits = 0x642
                    0x0644                  CRCDAT = 0x644
                    0x0644                  _CRCDAT = 0x644
                    0x0646                  CRCWDAT = 0x646
                    0x0646                  _CRCWDAT = 0x646
                    0x0680                  RPINR0 = 0x680
                    0x0680                  _RPINR0 = 0x680
                    0x0680                  _RPINR0bits = 0x680
                    0x0682                  RPINR1 = 0x682
                    0x0682                  _RPINR1 = 0x682
                    0x0682                  _RPINR1bits = 0x682
                    0x0686                  RPINR3 = 0x686
                    0x0686                  _RPINR3 = 0x686
                    0x0686                  _RPINR3bits = 0x686
                    0x0688                  RPINR4 = 0x688
                    0x0688                  _RPINR4 = 0x688
                    0x0688                  _RPINR4bits = 0x688
                    0x068e                  RPINR7 = 0x68e
                    0x068e                  _RPINR7 = 0x68e
                    0x068e                  _RPINR7bits = 0x68e
                    0x0690                  RPINR8 = 0x690
                    0x0690                  _RPINR8 = 0x690
                    0x0690                  _RPINR8bits = 0x690
                    0x0692                  RPINR9 = 0x692
                    0x0692                  _RPINR9 = 0x692
                    0x0692                  _RPINR9bits = 0x692
                    0x0696                  RPINR11 = 0x696
                    0x0696                  _RPINR11 = 0x696
                    0x0696                  _RPINR11bits = 0x696
                    0x06a4                  RPINR18 = 0x6a4
                    0x06a4                  _RPINR18 = 0x6a4
                    0x06a4                  _RPINR18bits = 0x6a4
                    0x06a6                  RPINR19 = 0x6a6
                    0x06a6                  _RPINR19 = 0x6a6
                    0x06a6                  _RPINR19bits = 0x6a6
                    0x06a8                  RPINR20 = 0x6a8
                    0x06a8                  _RPINR20 = 0x6a8
                    0x06a8                  _RPINR20bits = 0x6a8
                    0x06aa                  RPINR21 = 0x6aa
                    0x06aa                  _RPINR21 = 0x6aa
                    0x06aa                  _RPINR21bits = 0x6aa
                    0x06ac                  RPINR22 = 0x6ac
                    0x06ac                  _RPINR22 = 0x6ac
                    0x06ac                  _RPINR22bits = 0x6ac
                    0x06ae                  RPINR23 = 0x6ae
                    0x06ae                  _RPINR23 = 0x6ae
                    0x06ae                  _RPINR23bits = 0x6ae
                    0x06c0                  RPOR0 = 0x6c0
                    0x06c0                  _RPOR0 = 0x6c0
                    0x06c0                  _RPOR0bits = 0x6c0
                    0x06c2                  RPOR1 = 0x6c2
                    0x06c2                  _RPOR1 = 0x6c2
                    0x06c2                  _RPOR1bits = 0x6c2
                    0x06c4                  RPOR2 = 0x6c4
                    0x06c4                  _RPOR2 = 0x6c4
                    0x06c4                  _RPOR2bits = 0x6c4
                    0x06c6                  RPOR3 = 0x6c6
                    0x06c6                  _RPOR3 = 0x6c6
                    0x06c6                  _RPOR3bits = 0x6c6
                    0x06c8                  RPOR4 = 0x6c8
                    0x06c8                  _RPOR4 = 0x6c8
                    0x06c8                  _RPOR4bits = 0x6c8
                    0x06ca                  RPOR5 = 0x6ca
                    0x06ca                  _RPOR5 = 0x6ca
                    0x06ca                  _RPOR5bits = 0x6ca
                    0x06cc                  RPOR6 = 0x6cc
                    0x06cc                  _RPOR6 = 0x6cc
                    0x06cc                  _RPOR6bits = 0x6cc
                    0x06ce                  RPOR7 = 0x6ce
                    0x06ce                  _RPOR7 = 0x6ce
                    0x06ce                  _RPOR7bits = 0x6ce
                    0x06d0                  RPOR8 = 0x6d0
                    0x06d0                  _RPOR8 = 0x6d0
                    0x06d0                  _RPOR8bits = 0x6d0
                    0x06d2                  RPOR9 = 0x6d2
                    0x06d2                  _RPOR9 = 0x6d2
                    0x06d2                  _RPOR9bits = 0x6d2
                    0x06d4                  RPOR10 = 0x6d4
                    0x06d4                  _RPOR10 = 0x6d4
                    0x06d4                  _RPOR10bits = 0x6d4
                    0x06d6                  RPOR11 = 0x6d6
                    0x06d6                  _RPOR11 = 0x6d6
                    0x06d6                  _RPOR11bits = 0x6d6
                    0x06d8                  RPOR12 = 0x6d8
                    0x06d8                  _RPOR12 = 0x6d8
                    0x06d8                  _RPOR12bits = 0x6d8
                    0x0740                  RCON = 0x740
                    0x0740                  _RCON = 0x740
                    0x0740                  _RCONbits = 0x740
                    0x0742                  OSCCON = 0x742
                    0x0742                  _OSCCON = 0x742
                    0x0742                  _OSCCONbits = 0x742
                    0x0744                  CLKDIV = 0x744
                    0x0744                  _CLKDIV = 0x744
                    0x0744                  _CLKDIVbits = 0x744
                    0x0748                  OSCTUN = 0x748
                    0x0748                  _OSCTUN = 0x748
                    0x0748                  _OSCTUNbits = 0x748
                    0x0760                  NVMCON = 0x760
                    0x0760                  _NVMCON = 0x760
                    0x0760                  _NVMCONbits = 0x760
                    0x0766                  NVMKEY = 0x766
                    0x0766                  _NVMKEY = 0x766
                    0x0770                  PMD1 = 0x770
                    0x0770                  _PMD1 = 0x770
                    0x0770                  _PMD1bits = 0x770
                    0x0772                  PMD2 = 0x772
                    0x0772                  _PMD2 = 0x772
                    0x0772                  _PMD2bits = 0x772
                    0x0774                  PMD3 = 0x774
                    0x0774                  _PMD3 = 0x774
                    0x0774                  _PMD3bits = 0x774
                    0x0140                  IC1 = 0x140
                    0x0140                  _IC1 = 0x140
                    0x0144                  IC2 = 0x144
                    0x0144                  _IC2 = 0x144
                    0x0148                  IC3 = 0x148
                    0x0148                  _IC3 = 0x148
                    0x014c                  IC4 = 0x14c
                    0x014c                  _IC4 = 0x14c
                    0x0150                  IC5 = 0x150
                    0x0150                  _IC5 = 0x150
                    0x0180                  OC1 = 0x180
                    0x0180                  _OC1 = 0x180
                    0x0186                  OC2 = 0x186
                    0x0186                  _OC2 = 0x186
                    0x018c                  OC3 = 0x18c
                    0x018c                  _OC3 = 0x18c
                    0x0192                  OC4 = 0x192
                    0x0192                  _OC4 = 0x192
                    0x0198                  OC5 = 0x198
                    0x0198                  _OC5 = 0x198
                    0x0240                  SPI1 = 0x240
                    0x0240                  _SPI1 = 0x240
                    0x0260                  SPI2 = 0x260
                    0x0260                  _SPI2 = 0x260
                    0x0220                  UART1 = 0x220
                    0x0220                  _UART1 = 0x220
                    0x0230                  UART2 = 0x230
                    0x0230                  _UART2 = 0x230
                    0x0001                  __MPLAB_BUILD = 0x1
START GROUP
LOAD c:/microchip/mplab c30/bin/bin/../../lib\libpic30-coff.a
LOAD c:/microchip/mplab c30/bin/bin/../../lib\libm-coff.a
LOAD c:/microchip/mplab c30/bin/bin/../../lib\libc-coff.a
END GROUP
OUTPUT(uWatch.cof coff-pic30)
LOAD jump_table
LOAD data_init
LOAD default_isr

.nbss               0x0800        0x268
 .nbss              0x0800        0x268 uWatch-Main.o
                    0x0800                  DegreesMode
                    0x0802                  Regs
                    0x0822                  iRegs
                    0x0842                  CurrentMenu
                    0x0844                  RPNmode
                    0x0846                  ExponentIncluded
                    0x0848                  DecimalIncluded
                    0x084a                  ComplexIncluded
                    0x084c                  ValueEntered
                    0x084e                  EnableXregOverwrite
                    0x0850                  WatchMode
                    0x0852                  DisplayXreg
                    0x0873                  DisplayYreg
                    0x0894                  OperatorsXY
                    0x089e                  OperatorsYZ
                    0x08a8                  OperatorsZT
                    0x08b2                  Yregs
                    0x08d2                  Zregs
                    0x08f2                  Tregs
                    0x0912                  iYregs
                    0x0932                  iZregs
                    0x0952                  iTregs
                    0x0972                  Sreg
                    0x09c2                  iSreg
                    0x0a12                  LCDhistory1
                    0x0a23                  LCDhistory2
                    0x0a34                  NextMode
                    0x0a36                  TwelveHour
                    0x0a38                  CalcDisplayBase
                    0x0a3a                  ProgPlay
                    0x0a3c                  ProgRec
                    0x0a3e                  MemPointer
                    0x0a40                  Time
                    0x0a44                  Date
                    0x0a48                  MoonPhase
                    0x0a4a                  DST
                    0x0a4c                  MJD
                    0x0a50                  Year
                    0x0a52                  Month
                    0x0a54                  Day
                    0x0a56                  DayOfWeek
                    0x0a58                  Longitude
                    0x0a60                  Latitude

.ndata              0x0a68         0xcc
 .ndata             0x0a68         0xcc uWatch-Main.o
                    0x0a68                  MainMenus
                    0x0ad8                  dstRegion

.nbss               0x0b34          0x2
 .nbss              0x0b34          0x2 c:/microchip/mplab c30/bin/bin/../../lib\libm-coff.a(errno.o)
                    0x0b34                  errno

.bss                0x0b36         0x88
 .bss               0x0b36         0x88 c:/microchip/mplab c30/bin/bin/../../lib\libc-coff.a(rand.o)

.data               0x0bbe         0xda
 .data              0x0bbe         0x4a c:/microchip/mplab c30/bin/bin/../../lib\libc-coff.a(xstoul.o)
 .data              0x0c08         0x48 c:/microchip/mplab c30/bin/bin/../../lib\libc-coff.a(xldtento.o)
 .data              0x0c50         0x48 c:/microchip/mplab c30/bin/bin/../../lib\libc-coff.a(xldtob.o)

.dconst             0x0c98         0x32
 .dconst            0x0c98         0x32 c:/microchip/mplab c30/bin/bin/../../lib\libc-coff.a(xldtob.o)

.data               0x0cca         0xac
 .data              0x0cca         0x2e c:/microchip/mplab c30/bin/bin/../../lib\libc-coff.a(xstoxflt.o)
 .data              0x0cf8         0x22 c:/microchip/mplab c30/bin/bin/../../lib\libc-coff.a(xlitob.o)
 .data              0x0d1a         0x20 c:/microchip/mplab c30/bin/bin/../../lib\libc-coff.a(xstold.o)
 .data              0x0d3a         0x20 c:/microchip/mplab c30/bin/bin/../../lib\libc-coff.a(xstoflt.o)
 .data              0x0d5a         0x12 c:/microchip/mplab c30/bin/bin/../../lib\libc-coff.a(xprintf.do)
 .data              0x0d6c          0xa c:/microchip/mplab c30/bin/bin/../../lib\libc-coff.a(rand.o)
                    0x0d6c                  _Tls_setup__Randseed
                    0x0d6e                  _Randseed
                    0x0d72                  _Tls_setup__Randinit
                    0x0d74                  _Randinit

.dconst             0x0d76          0x8
 .dconst            0x0d76          0x8 c:/microchip/mplab c30/bin/bin/../../lib\libc-coff.a(xprintf.do)

.data               0x0d7e          0x2
 .data              0x0d7e          0x2 c:/microchip/mplab c30/bin/bin/../../lib\libc-coff.a(ldiv.o)

.dconst             0x0d80          0x2
 .dconst            0x0d80          0x2 c:/microchip/mplab c30/bin/bin/../../lib\libc-coff.a(xgenld.o)

.data               0x0d82          0x2
 .data              0x0d82          0x2 c:/microchip/mplab c30/bin/bin/../../lib\libc-coff.a(div.o)

.const              0xbaee        0x84c load address 0x003aee  
 .const             0xbaee        0x84c uWatch-Main.o

.text             0x00433a       0x4bd2
 .text            0x00433a       0x2b14 uWatch-Main.o
                  0x00433a                  opPrec
                  0x004372                  DelayMs
                  0x004386                  Clock1MHz
                  0x00438e                  Clock4MHz
                  0x004396                  Clock250KHz
                  0x00439e                  Clock125KHz
                  0x0043a6                  Clock32KHz
                  0x0043ae                  LCD_STROBE
                  0x0043b4                  SetLCDdata
                  0x0043c2                  lcd_write
                  0x0043d2                  lcd_clear
                  0x0043da                  lcd_puts
                  0x004410                  lcd_goto
                  0x00441a                  lcd_init
                  0x00443c                  UpdateLCD
                  0x004472                  UpdateLCDline1
                  0x004488                  UpdateLCDline2
                  0x00449e                  ClearCurrentRegs
                  0x0044ea                  ClearAllRegs
                  0x0045ce                  i2c_high_sda
                  0x0045d2                  i2c_low_sda
                  0x0045d6                  i2c_high_scl
                  0x0045da                  i2c_low_scl
                  0x0045de                  i2c_in_byte
                  0x004602                  i2c_out_byte
                  0x004622                  i2c_nack
                  0x00462a                  i2c_ack
                  0x004634                  i2c_start
                  0x004640                  i2c_stop
                  0x00464a                  I2CmemoryWRITE
                  0x004678                  I2CmemoryREAD
                  0x0046aa                  KeystrokeReplay
                  0x0046c8                  KeystrokeRecord
                  0x0046ee                  KeyScan
                  0x00485c                  BCDtoDEC
                  0x004866                  DECtoBCD
                  0x00487c                  itochar
                  0x0048d8                  DriveMenu
                  0x004928                  ReturnNumber
                  0x00496a                  DriveMenu2
                  0x004a12                  GetNumBCD
                  0x004a34                  Push
                  0x004a76                  PushOp
                  0x004a82                  PopOp
                  0x004a8e                  DropStack
                  0x004abc                  Clt
                  0x004ace                  PopStack
                  0x004aec                  PushStackUp
                  0x004af2                  Drop
                  0x004afc                  Clx
                  0x004b0e                  SwapXY
                  0x004b54                  Operate
                  0x004b9a                  EnterComplex
                  0x004bbc                  ChangeSign
                  0x004bd8                  EnterNumber
                  0x004d86                  FormatValue
                  0x00507a                  UpdateDisplayRegX
                  0x005082                  UpdateDisplayRegs
                  0x005158                  xtio
                  0x00518c                  ConvertDisplay
                  0x0052e6                  CompleteXreg
                  0x0052fc                  UpdateMANTDisplay
                  0x005358                  UpdateXregDisplay
                  0x005374                  UpdateYregDisplay
                  0x005396                  ResetFlags
                  0x0053a6                  StoreRecall
                  0x00541a                  SignKey
                  0x0054ca                  KeyRecord
                  0x005520                  KeyReplay
                  0x00556c                  HexEntry
                  0x0055d2                  Conversions
                  0x00569c                  BaseMode
                  0x0056d6                  RPNcalculator
                  0x0057f4                  reduce
                  0x005818                  ALGcalculator
                  0x005b28                  SetTimeBCD
                  0x005b54                  SetDateBCD
                  0x005b8c                  SetDateBCDandUpdate
                  0x005baa                  OneLineNumberEntry
                  0x005be2                  SetupMode
                  0x005ff2                  AppsMode
                  0x006012                  GamesMode
                  0x00658c                  ToolsMode
                  0x00689a                  RTCCunlock
                  0x0068ac                  LCDon
                  0x0068b6                  LCDoff
                  0x0068c4                  IdleI2C1
                  0x0069a2                  inDST
                  0x006a0a                  AdjustDateTime
                  0x006aca                  TimeDateDisplay
                  0x006c5e                  BacklightON
                  0x006c6c                  BacklightOFF
                  0x006c74                  _T1Interrupt
                  0x006ce8                  ProgramInit
                  0x006ddc                  main
 .text            0x006e4e       0x1aa2 uWatch-op.o
                  0x006e4e                  hms
                  0x006ebc                  hr
                  0x006f2a                  caldati
                  0x006fdc                  mjd
                  0x00704e                  moonPhase
                  0x007678                  uWatch-op.o:_opSin
                  0x00774a                  uWatch-op.o:_opTan
                  0x00788e                  uWatch-op.o:_opASin
                  0x007996                  uWatch-op.o:_opATan
                  0x007e5a                  Operation
 .text            0x0088f0        0x61c uWatch-astro.o
                  0x008eaa                  CalcRiseAndSet

.dinit            0x008f0c        0x22e
 .dinit           0x008f0c        0x22e data_init

.isr              0x00913a          0x2
 .isr             0x00913a          0x2 default_isr
                  0x00913a                  _DefaultInterrupt
